Component: Arm Compiler for Embedded 6.21 Tool: armlink [5ec1fa00]

==============================================================================

Image Symbol Table

    Local Symbols

    Symbol Name                              Value     Ov Type        Size  Object(Section)

    ../clib/../cmprslib/zerorunl2.c          0x00000000   Number         0  __dczerorl2.o ABSOLUTE
    ../clib/division.s                       0x00000000   Number         0  aeabi_sdiv.o ABSOLUTE
    ../clib/microlib/ctype/ctype.c           0x00000000   Number         0  ctype_o.o ABSOLUTE
    ../clib/microlib/ctype/ctype.c           0x00000000   Number         0  isalnum_o.o ABSOLUTE
    ../clib/microlib/ctype/ctype.c           0x00000000   Number         0  isalpha_o.o ABSOLUTE
    ../clib/microlib/ctype/ctype.c           0x00000000   Number         0  isblank_o.o ABSOLUTE
    ../clib/microlib/ctype/ctype.c           0x00000000   Number         0  iscntrl_o.o ABSOLUTE
    ../clib/microlib/ctype/ctype.c           0x00000000   Number         0  isdigit_o.o ABSOLUTE
    ../clib/microlib/ctype/ctype.c           0x00000000   Number         0  isgraph_o.o ABSOLUTE
    ../clib/microlib/ctype/ctype.c           0x00000000   Number         0  islower_o.o ABSOLUTE
    ../clib/microlib/ctype/ctype.c           0x00000000   Number         0  isprint_o.o ABSOLUTE
    ../clib/microlib/ctype/ctype.c           0x00000000   Number         0  ispunct_o.o ABSOLUTE
    ../clib/microlib/ctype/ctype.c           0x00000000   Number         0  isspace_o.o ABSOLUTE
    ../clib/microlib/ctype/ctype.c           0x00000000   Number         0  isupper_o.o ABSOLUTE
    ../clib/microlib/ctype/ctype.c           0x00000000   Number         0  isxdigit_o.o ABSOLUTE
    ../clib/microlib/ctype/toupper.c         0x00000000   Number         0  toupper.o ABSOLUTE
    ../clib/microlib/division.c              0x00000000   Number         0  uldiv.o ABSOLUTE
    ../clib/microlib/division.c              0x00000000   Number         0  uidiv.o ABSOLUTE
    ../clib/microlib/errno.c                 0x00000000   Number         0  errno.o ABSOLUTE
    ../clib/microlib/init/entry.s            0x00000000   Number         0  entry.o ABSOLUTE
    ../clib/microlib/init/entry.s            0x00000000   Number         0  entry2.o ABSOLUTE
    ../clib/microlib/init/entry.s            0x00000000   Number         0  entry5.o ABSOLUTE
    ../clib/microlib/init/entry.s            0x00000000   Number         0  entry7a.o ABSOLUTE
    ../clib/microlib/init/entry.s            0x00000000   Number         0  entry7b.o ABSOLUTE
    ../clib/microlib/init/entry.s            0x00000000   Number         0  entry8a.o ABSOLUTE
    ../clib/microlib/init/entry.s            0x00000000   Number         0  entry8b.o ABSOLUTE
    ../clib/microlib/init/entry.s            0x00000000   Number         0  entry9a.o ABSOLUTE
    ../clib/microlib/init/entry.s            0x00000000   Number         0  entry9b.o ABSOLUTE
    ../clib/microlib/init/entry.s            0x00000000   Number         0  entry10a.o ABSOLUTE
    ../clib/microlib/init/entry.s            0x00000000   Number         0  entry10b.o ABSOLUTE
    ../clib/microlib/init/entry.s            0x00000000   Number         0  entry11a.o ABSOLUTE
    ../clib/microlib/init/entry.s            0x00000000   Number         0  entry11b.o ABSOLUTE
    ../clib/microlib/longlong.c              0x00000000   Number         0  llshl.o ABSOLUTE
    ../clib/microlib/longlong.c              0x00000000   Number         0  llushr.o ABSOLUTE
    ../clib/microlib/longlong.c              0x00000000   Number         0  llsshr.o ABSOLUTE
    ../clib/microlib/malloc/malloc.c         0x00000000   Number         0  malloc.o ABSOLUTE
    ../clib/microlib/malloc/malloc.c         0x00000000   Number         0  mallocr.o ABSOLUTE
    ../clib/microlib/malloc/malloc.c         0x00000000   Number         0  malloca.o ABSOLUTE
    ../clib/microlib/malloc/malloc.c         0x00000000   Number         0  mallocra.o ABSOLUTE
    ../clib/microlib/malloc/mvars.c          0x00000000   Number         0  mvars.o ABSOLUTE
    ../clib/microlib/printf/printf.c         0x00000000   Number         0  printfa.o ABSOLUTE
    ../clib/microlib/stdio/fputc.c           0x00000000   Number         0  fputc.o ABSOLUTE
    ../clib/microlib/stdio/fputc.c           0x00000000   Number         0  fputc_h.o ABSOLUTE
    ../clib/microlib/stdio/semi.s            0x00000000   Number         0  semi.o ABSOLUTE
    ../clib/microlib/stdio/streams.c         0x00000000   Number         0  stdout.o ABSOLUTE
    ../clib/microlib/string/memcpy.c         0x00000000   Number         0  memcpya.o ABSOLUTE
    ../clib/microlib/string/memcpy.c         0x00000000   Number         0  memmovea.o ABSOLUTE
    ../clib/microlib/string/memcpy.c         0x00000000   Number         0  memcpyb.o ABSOLUTE
    ../clib/microlib/string/memcpy.c         0x00000000   Number         0  memmoveb.o ABSOLUTE
    ../clib/microlib/string/memset.c         0x00000000   Number         0  memseta.o ABSOLUTE
    ../clib/microlib/string/strcmp.c         0x00000000   Number         0  strcmp.o ABSOLUTE
    ../clib/microlib/string/strcpy.c         0x00000000   Number         0  strcpy.o ABSOLUTE
    ../clib/microlib/string/strlen.c         0x00000000   Number         0  strlen.o ABSOLUTE
    ../clib/microlib/stubs.s                 0x00000000   Number         0  iusefp.o ABSOLUTE
    ../clib/microlib/stubs.s                 0x00000000   Number         0  iusesemip.o ABSOLUTE
    ../fplib/microlib/fpadd.c                0x00000000   Number         0  dadd.o ABSOLUTE
    ../fplib/microlib/fpdiv.c                0x00000000   Number         0  ddiv.o ABSOLUTE
    ../fplib/microlib/fpepilogue.c           0x00000000   Number         0  depilogue.o ABSOLUTE
    ../fplib/microlib/fpfix.c                0x00000000   Number         0  dfixul.o ABSOLUTE
    ../fplib/microlib/fpmul.c                0x00000000   Number         0  dmul.o ABSOLUTE
    ../mathlib/acosf.c                       0x00000000   Number         0  acosf.o ABSOLUTE
    ../mathlib/asinf.c                       0x00000000   Number         0  asinf.o ABSOLUTE
    ../mathlib/atan2f.c                      0x00000000   Number         0  atan2f.o ABSOLUTE
    ../mathlib/cos.c                         0x00000000   Number         0  cos.o ABSOLUTE
    ../mathlib/cos_i.c                       0x00000000   Number         0  cos_i.o ABSOLUTE
    ../mathlib/cosf.c                        0x00000000   Number         0  cosf.o ABSOLUTE
    ../mathlib/dunder.c                      0x00000000   Number         0  dunder.o ABSOLUTE
    ../mathlib/fabs.c                        0x00000000   Number         0  fabs.o ABSOLUTE
    ../mathlib/fpclassify.c                  0x00000000   Number         0  fpclassify.o ABSOLUTE
    ../mathlib/fpclassifyf.c                 0x00000000   Number         0  fpclassifyf.o ABSOLUTE
    ../mathlib/funder.c                      0x00000000   Number         0  funder.o ABSOLUTE
    ../mathlib/poly.c                        0x00000000   Number         0  poly.o ABSOLUTE
    ../mathlib/rred.c                        0x00000000   Number         0  rred.o ABSOLUTE
    ../mathlib/rredf.c                       0x00000000   Number         0  rredf.o ABSOLUTE
    ../mathlib/sin.c                         0x00000000   Number         0  sin.o ABSOLUTE
    ../mathlib/sin_i.c                       0x00000000   Number         0  sin_i.o ABSOLUTE
    ../mathlib/sinf.c                        0x00000000   Number         0  sinf.o ABSOLUTE
    ../mathlib/sqrt.c                        0x00000000   Number         0  sqrt.o ABSOLUTE
    ../mathlib/sqrtf.c                       0x00000000   Number         0  sqrtf.o ABSOLUTE
    BMI088Middleware.c                       0x00000000   Number         0  bmi088middleware.o ABSOLUTE
    BMI088driver.c                           0x00000000   Number         0  bmi088driver.o ABSOLUTE
    CRC.c                                    0x00000000   Number         0  crc.o ABSOLUTE
    DJI_motor.c                              0x00000000   Number         0  dji_motor.o ABSOLUTE
    DM_motor.c                               0x00000000   Number         0  dm_motor.o ABSOLUTE
    INS.c                                    0x00000000   Number         0  ins.o ABSOLUTE
    INS_task.c                               0x00000000   Number         0  ins_task.o ABSOLUTE
    MadgwickAHRS.c                           0x00000000   Number         0  madgwickahrs.o ABSOLUTE
    MahonyAHRS.c                             0x00000000   Number         0  mahonyahrs.o ABSOLUTE
    PowerCtrl.c                              0x00000000   Number         0  powerctrl.o ABSOLUTE
    QuaternionEKF.c                          0x00000000   Number         0  quaternionekf.o ABSOLUTE
    Serial.c                                 0x00000000   Number         0  serial.o ABSOLUTE
    SuperCap.c                               0x00000000   Number         0  supercap.o ABSOLUTE
    VPC.c                                    0x00000000   Number         0  vpc.o ABSOLUTE
    arm_mat_add_f32.c                        0x00000000   Number         0  arm_mat_add_f32.o ABSOLUTE
    arm_mat_init_f32.c                       0x00000000   Number         0  arm_mat_init_f32.o ABSOLUTE
    arm_mat_inverse_f32.c                    0x00000000   Number         0  arm_mat_inverse_f32.o ABSOLUTE
    arm_mat_mult_f32.c                       0x00000000   Number         0  arm_mat_mult_f32.o ABSOLUTE
    arm_mat_sub_f32.c                        0x00000000   Number         0  arm_mat_sub_f32.o ABSOLUTE
    arm_mat_trans_f32.c                      0x00000000   Number         0  arm_mat_trans_f32.o ABSOLUTE
    bmi088.c                                 0x00000000   Number         0  bmi088.o ABSOLUTE
    bsp_can.c                                0x00000000   Number         0  bsp_can.o ABSOLUTE
    bsp_dwt.c                                0x00000000   Number         0  bsp_dwt.o ABSOLUTE
    bsp_gpio.c                               0x00000000   Number         0  bsp_gpio.o ABSOLUTE
    bsp_iic.c                                0x00000000   Number         0  bsp_iic.o ABSOLUTE
    bsp_pwm.c                                0x00000000   Number         0  bsp_pwm.o ABSOLUTE
    bsp_spi.c                                0x00000000   Number         0  bsp_spi.o ABSOLUTE
    bsp_usart.c                              0x00000000   Number         0  bsp_usart.o ABSOLUTE
    buzzer.c                                 0x00000000   Number         0  buzzer.o ABSOLUTE
    cdrcmple.s                               0x00000000   Number         0  cdrcmple.o ABSOLUTE
    chassis.c                                0x00000000   Number         0  chassis.o ABSOLUTE
    chassis_task.c                           0x00000000   Number         0  chassis_task.o ABSOLUTE
    cmsis_os2.c                              0x00000000   Number         0  cmsis_os2.o ABSOLUTE
    control_task.c                           0x00000000   Number         0  control_task.o ABSOLUTE
    croutine.c                               0x00000000   Number         0  croutine.o ABSOLUTE
    daemon.c                                 0x00000000   Number         0  daemon.o ABSOLUTE
    daemon_task.c                            0x00000000   Number         0  daemon_task.o ABSOLUTE
    dc.s                                     0x00000000   Number         0  dc.o ABSOLUTE
    defense_center.c                         0x00000000   Number         0  defense_center.o ABSOLUTE
    dma.c                                    0x00000000   Number         0  dma.o ABSOLUTE
    drv_motor.c                              0x00000000   Number         0  drv_motor.o ABSOLUTE
    event_groups.c                           0x00000000   Number         0  event_groups.o ABSOLUTE
    fdcan.c                                  0x00000000   Number         0  fdcan.o ABSOLUTE
    freertos.c                               0x00000000   Number         0  freertos.o ABSOLUTE
    gimbal.c                                 0x00000000   Number         0  gimbal.o ABSOLUTE
    gimbal_task.c                            0x00000000   Number         0  gimbal_task.o ABSOLUTE
    gpio.c                                   0x00000000   Number         0  gpio.o ABSOLUTE
    handlers.s                               0x00000000   Number         0  handlers.o ABSOLUTE
    heap_4.c                                 0x00000000   Number         0  heap_4.o ABSOLUTE
    i2c.c                                    0x00000000   Number         0  i2c.o ABSOLUTE
    init.s                                   0x00000000   Number         0  init.o ABSOLUTE
    kalman_filter.c                          0x00000000   Number         0  kalman_filter.o ABSOLUTE
    kalman_one_filter.c                      0x00000000   Number         0  kalman_one_filter.o ABSOLUTE
    list.c                                   0x00000000   Number         0  list.o ABSOLUTE
    main.c                                   0x00000000   Number         0  main.o ABSOLUTE
    message_center.c                         0x00000000   Number         0  message_center.o ABSOLUTE
    pid.c                                    0x00000000   Number         0  pid.o ABSOLUTE
    port.c                                   0x00000000   Number         0  port.o ABSOLUTE
    procotol.c                               0x00000000   Number         0  procotol.o ABSOLUTE
    procotol_task.c                          0x00000000   Number         0  procotol_task.o ABSOLUTE
    queue.c                                  0x00000000   Number         0  queue.o ABSOLUTE
    ramp.c                                   0x00000000   Number         0  ramp.o ABSOLUTE
    referee.c                                0x00000000   Number         0  referee.o ABSOLUTE
    remote_control.c                         0x00000000   Number         0  remote_control.o ABSOLUTE
    robot_frame_config.c                     0x00000000   Number         0  robot_frame_config.o ABSOLUTE
    robot_frame_init.c                       0x00000000   Number         0  robot_frame_init.o ABSOLUTE
    rs485.c                                  0x00000000   Number         0  rs485.o ABSOLUTE
    shoot.c                                  0x00000000   Number         0  shoot.o ABSOLUTE
    shoot_motor.c                            0x00000000   Number         0  shoot_motor.o ABSOLUTE
    shoot_task.c                             0x00000000   Number         0  shoot_task.o ABSOLUTE
    signal_generator.c                       0x00000000   Number         0  signal_generator.o ABSOLUTE
    spi.c                                    0x00000000   Number         0  spi.o ABSOLUTE
    startup_stm32h723xx.s                    0x00000000   Number         0  startup_stm32h723xx.o ABSOLUTE
    stm32h7xx_hal.c                          0x00000000   Number         0  stm32h7xx_hal.o ABSOLUTE
    stm32h7xx_hal_cortex.c                   0x00000000   Number         0  stm32h7xx_hal_cortex.o ABSOLUTE
    stm32h7xx_hal_dma.c                      0x00000000   Number         0  stm32h7xx_hal_dma.o ABSOLUTE
    stm32h7xx_hal_dma_ex.c                   0x00000000   Number         0  stm32h7xx_hal_dma_ex.o ABSOLUTE
    stm32h7xx_hal_exti.c                     0x00000000   Number         0  stm32h7xx_hal_exti.o ABSOLUTE
    stm32h7xx_hal_fdcan.c                    0x00000000   Number         0  stm32h7xx_hal_fdcan.o ABSOLUTE
    stm32h7xx_hal_flash.c                    0x00000000   Number         0  stm32h7xx_hal_flash.o ABSOLUTE
    stm32h7xx_hal_flash_ex.c                 0x00000000   Number         0  stm32h7xx_hal_flash_ex.o ABSOLUTE
    stm32h7xx_hal_gpio.c                     0x00000000   Number         0  stm32h7xx_hal_gpio.o ABSOLUTE
    stm32h7xx_hal_hsem.c                     0x00000000   Number         0  stm32h7xx_hal_hsem.o ABSOLUTE
    stm32h7xx_hal_i2c.c                      0x00000000   Number         0  stm32h7xx_hal_i2c.o ABSOLUTE
    stm32h7xx_hal_i2c_ex.c                   0x00000000   Number         0  stm32h7xx_hal_i2c_ex.o ABSOLUTE
    stm32h7xx_hal_mdma.c                     0x00000000   Number         0  stm32h7xx_hal_mdma.o ABSOLUTE
    stm32h7xx_hal_msp.c                      0x00000000   Number         0  stm32h7xx_hal_msp.o ABSOLUTE
    stm32h7xx_hal_pcd.c                      0x00000000   Number         0  stm32h7xx_hal_pcd.o ABSOLUTE
    stm32h7xx_hal_pcd_ex.c                   0x00000000   Number         0  stm32h7xx_hal_pcd_ex.o ABSOLUTE
    stm32h7xx_hal_pwr.c                      0x00000000   Number         0  stm32h7xx_hal_pwr.o ABSOLUTE
    stm32h7xx_hal_pwr_ex.c                   0x00000000   Number         0  stm32h7xx_hal_pwr_ex.o ABSOLUTE
    stm32h7xx_hal_rcc.c                      0x00000000   Number         0  stm32h7xx_hal_rcc.o ABSOLUTE
    stm32h7xx_hal_rcc_ex.c                   0x00000000   Number         0  stm32h7xx_hal_rcc_ex.o ABSOLUTE
    stm32h7xx_hal_spi.c                      0x00000000   Number         0  stm32h7xx_hal_spi.o ABSOLUTE
    stm32h7xx_hal_spi_ex.c                   0x00000000   Number         0  stm32h7xx_hal_spi_ex.o ABSOLUTE
    stm32h7xx_hal_tim.c                      0x00000000   Number         0  stm32h7xx_hal_tim.o ABSOLUTE
    stm32h7xx_hal_tim_ex.c                   0x00000000   Number         0  stm32h7xx_hal_tim_ex.o ABSOLUTE
    stm32h7xx_hal_timebase_tim.c             0x00000000   Number         0  stm32h7xx_hal_timebase_tim.o ABSOLUTE
    stm32h7xx_hal_uart.c                     0x00000000   Number         0  stm32h7xx_hal_uart.o ABSOLUTE
    stm32h7xx_hal_uart_ex.c                  0x00000000   Number         0  stm32h7xx_hal_uart_ex.o ABSOLUTE
    stm32h7xx_it.c                           0x00000000   Number         0  stm32h7xx_it.o ABSOLUTE
    stm32h7xx_ll_usb.c                       0x00000000   Number         0  stm32h7xx_ll_usb.o ABSOLUTE
    stream_buffer.c                          0x00000000   Number         0  stream_buffer.o ABSOLUTE
    system_stm32h7xx.c                       0x00000000   Number         0  system_stm32h7xx.o ABSOLUTE
    tasks.c                                  0x00000000   Number         0  tasks.o ABSOLUTE
    tim.c                                    0x00000000   Number         0  tim.o ABSOLUTE
    timers.c                                 0x00000000   Number         0  timers.o ABSOLUTE
    ui.c                                     0x00000000   Number         0  ui.o ABSOLUTE
    ui_Infantry_group1_0.c                   0x00000000   Number         0  ui_infantry_group1_0.o ABSOLUTE
    ui_Infantry_group1_1.c                   0x00000000   Number         0  ui_infantry_group1_1.o ABSOLUTE
    ui_Infantry_group1_2.c                   0x00000000   Number         0  ui_infantry_group1_2.o ABSOLUTE
    ui_Infantry_group1_3.c                   0x00000000   Number         0  ui_infantry_group1_3.o ABSOLUTE
    ui_Infantry_group1_4.c                   0x00000000   Number         0  ui_infantry_group1_4.o ABSOLUTE
    ui_Infantry_group1_5.c                   0x00000000   Number         0  ui_infantry_group1_5.o ABSOLUTE
    ui_Infantry_group2_0.c                   0x00000000   Number         0  ui_infantry_group2_0.o ABSOLUTE
    ui_interface.c                           0x00000000   Number         0  ui_interface.o ABSOLUTE
    usart.c                                  0x00000000   Number         0  usart.o ABSOLUTE
    usb_device.c                             0x00000000   Number         0  usb_device.o ABSOLUTE
    usbd_cdc.c                               0x00000000   Number         0  usbd_cdc.o ABSOLUTE
    usbd_cdc_if.c                            0x00000000   Number         0  usbd_cdc_if.o ABSOLUTE
    usbd_conf.c                              0x00000000   Number         0  usbd_conf.o ABSOLUTE
    usbd_core.c                              0x00000000   Number         0  usbd_core.o ABSOLUTE
    usbd_ctlreq.c                            0x00000000   Number         0  usbd_ctlreq.o ABSOLUTE
    usbd_desc.c                              0x00000000   Number         0  usbd_desc.o ABSOLUTE
    usbd_ioreq.c                             0x00000000   Number         0  usbd_ioreq.o ABSOLUTE
    user_lib.c                               0x00000000   Number         0  user_lib.o ABSOLUTE
    vofa.c                                   0x00000000   Number         0  vofa.o ABSOLUTE
    ws2812.c                                 0x00000000   Number         0  ws2812.o ABSOLUTE
    RESET                                    0x08000000   Section      716  startup_stm32h723xx.o(RESET)
    .ARM.Collect$$$$00000000                 0x080002cc   Section        0  entry.o(.ARM.Collect$$$$00000000)
    .ARM.Collect$$$$00000001                 0x080002cc   Section        4  entry2.o(.ARM.Collect$$$$00000001)
    .ARM.Collect$$$$00000004                 0x080002d0   Section        4  entry5.o(.ARM.Collect$$$$00000004)
    .ARM.Collect$$$$00000008                 0x080002d4   Section        0  entry7b.o(.ARM.Collect$$$$00000008)
    .ARM.Collect$$$$0000000A                 0x080002d4   Section        0  entry8b.o(.ARM.Collect$$$$0000000A)
    .ARM.Collect$$$$0000000B                 0x080002d4   Section        8  entry9a.o(.ARM.Collect$$$$0000000B)
    __lit__00000000                          0x080002dc   Data           4  entry2.o(.ARM.Collect$$$$00002712)
    .ARM.Collect$$$$0000000D                 0x080002dc   Section        0  entry10a.o(.ARM.Collect$$$$0000000D)
    .ARM.Collect$$$$0000000F                 0x080002dc   Section        0  entry11a.o(.ARM.Collect$$$$0000000F)
    .ARM.Collect$$$$00002712                 0x080002dc   Section        4  entry2.o(.ARM.Collect$$$$00002712)
    $v0                                      0x080002e0   Number         0  startup_stm32h723xx.o(.text)
    .text                                    0x080002e0   Section       44  startup_stm32h723xx.o(.text)
    .text                                    0x0800030c   Section        0  uldiv.o(.text)
    .text                                    0x08000370   Section        0  ctype_o.o(.text)
    .text                                    0x08000378   Section        0  toupper.o(.text)
    .text                                    0x08000384   Section        0  memmovea.o(.text)
    .text                                    0x080003c4   Section        0  memseta.o(.text)
    .text                                    0x080003e8   Section        0  strlen.o(.text)
    .text                                    0x080003f6   Section        0  strcmp.o(.text)
    .text                                    0x08000412   Section        0  strcpy.o(.text)
    .text                                    0x08000424   Section        0  llshl.o(.text)
    .text                                    0x08000442   Section        0  llushr.o(.text)
    .text                                    0x08000462   Section        0  iusefp.o(.text)
    .text                                    0x08000464   Section       48  init.o(.text)
    .text                                    0x08000494   Section        0  __dczerorl2.o(.text)
    BMI088_Accel_INT_Callback                0x080004f1   Thumb Code    56  bmi088.o(.text.BMI088_Accel_INT_Callback)
    [Anonymous Symbol]                       0x080004f0   Section        0  bmi088.o(.text.BMI088_Accel_INT_Callback)
    BMI088_Accel_Init                        0x08000529   Thumb Code   440  bmi088.o(.text.BMI088_Accel_Init)
    [Anonymous Symbol]                       0x08000528   Section        0  bmi088.o(.text.BMI088_Accel_Init)
    BMI088_Accel_Read                        0x080006e9   Thumb Code    92  bmi088.o(.text.BMI088_Accel_Read)
    [Anonymous Symbol]                       0x080006e8   Section        0  bmi088.o(.text.BMI088_Accel_Read)
    BMI088_Accel_SPI_Finish_Callback         0x08000749   Thumb Code   340  bmi088.o(.text.BMI088_Accel_SPI_Finish_Callback)
    [Anonymous Symbol]                       0x08000748   Section        0  bmi088.o(.text.BMI088_Accel_SPI_Finish_Callback)
    BMI088_Accel_Write_SingleReg             0x080008a1   Thumb Code    46  bmi088.o(.text.BMI088_Accel_Write_SingleReg)
    [Anonymous Symbol]                       0x080008a0   Section        0  bmi088.o(.text.BMI088_Accel_Write_SingleReg)
    [Anonymous Symbol]                       0x080008d0   Section        0  bmi088.o(.text.BMI088_Calibrate_IMU)
    __arm_cp.4_6                             0x08000c88   Number         4  bmi088.o(.text.BMI088_Calibrate_IMU)
    BMI088_Filter_Init                       0x08000fc1   Thumb Code     8  bmi088.o(.text.BMI088_Filter_Init)
    [Anonymous Symbol]                       0x08000fc0   Section        0  bmi088.o(.text.BMI088_Filter_Init)
    BMI088_Gyro_INT_Callback                 0x08000fc9   Thumb Code    56  bmi088.o(.text.BMI088_Gyro_INT_Callback)
    [Anonymous Symbol]                       0x08000fc8   Section        0  bmi088.o(.text.BMI088_Gyro_INT_Callback)
    BMI088_Gyro_Init                         0x08001001   Thumb Code   460  bmi088.o(.text.BMI088_Gyro_Init)
    [Anonymous Symbol]                       0x08001000   Section        0  bmi088.o(.text.BMI088_Gyro_Init)
    BMI088_Gyro_Read                         0x080011d9   Thumb Code    92  bmi088.o(.text.BMI088_Gyro_Read)
    [Anonymous Symbol]                       0x080011d8   Section        0  bmi088.o(.text.BMI088_Gyro_Read)
    BMI088_Gyro_SPI_Finish_Callback          0x08001239   Thumb Code   312  bmi088.o(.text.BMI088_Gyro_SPI_Finish_Callback)
    [Anonymous Symbol]                       0x08001238   Section        0  bmi088.o(.text.BMI088_Gyro_SPI_Finish_Callback)
    BMI088_Gyro_Write_SingleReg              0x08001371   Thumb Code    46  bmi088.o(.text.BMI088_Gyro_Write_SingleReg)
    [Anonymous Symbol]                       0x08001370   Section        0  bmi088.o(.text.BMI088_Gyro_Write_SingleReg)
    BMI088_Kalman_Filter_Init                0x080013a1   Thumb Code   112  bmi088.o(.text.BMI088_Kalman_Filter_Init)
    [Anonymous Symbol]                       0x080013a0   Section        0  bmi088.o(.text.BMI088_Kalman_Filter_Init)
    [Anonymous Symbol]                       0x08001418   Section        0  bmi088.o(.text.BMI088_Read_All)
    [Anonymous Symbol]                       0x08001750   Section        0  bmi088.o(.text.BMI088_Register)
    BMI088_Set_Mode                          0x080018c1   Thumb Code    90  bmi088.o(.text.BMI088_Set_Mode)
    [Anonymous Symbol]                       0x080018c0   Section        0  bmi088.o(.text.BMI088_Set_Mode)
    BodyFrameToEarthFrame                    0x08001921   Thumb Code   258  ins.o(.text.BodyFrameToEarthFrame)
    [Anonymous Symbol]                       0x08001920   Section        0  ins.o(.text.BodyFrameToEarthFrame)
    [Anonymous Symbol]                       0x08001a28   Section        0  stm32h7xx_it.o(.text.BusFault_Handler)
    [Anonymous Symbol]                       0x08001a30   Section        0  buzzer.o(.text.Buzzer_Play)
    [Anonymous Symbol]                       0x08001a78   Section        0  buzzer.o(.text.Buzzer_Register)
    [Anonymous Symbol]                       0x08001b00   Section        0  buzzer.o(.text.Buzzer_Silence)
    [Anonymous Symbol]                       0x08001b20   Section        0  buzzer.o(.text.Buzzer_Task)
    [Anonymous Symbol]                       0x08001bb8   Section        0  daemon_task.o(.text.Buzzer_Task_Init)
    CANFIFOxCallback                         0x08001c11   Thumb Code   246  bsp_can.o(.text.CANFIFOxCallback)
    [Anonymous Symbol]                       0x08001c10   Section        0  bsp_can.o(.text.CANFIFOxCallback)
    CAN_Add_Filter                           0x08001d09   Thumb Code   162  bsp_can.o(.text.CAN_Add_Filter)
    [Anonymous Symbol]                       0x08001d08   Section        0  bsp_can.o(.text.CAN_Add_Filter)
    [Anonymous Symbol]                       0x08001db0   Section        0  bsp_can.o(.text.CAN_Register)
    CAN_Service_Init                         0x08001e99   Thumb Code   226  bsp_can.o(.text.CAN_Service_Init)
    [Anonymous Symbol]                       0x08001e98   Section        0  bsp_can.o(.text.CAN_Service_Init)
    [Anonymous Symbol]                       0x08001f80   Section        0  bsp_can.o(.text.CAN_Transmit)
    CDC_Control_HS                           0x08002039   Thumb Code    92  usbd_cdc_if.o(.text.CDC_Control_HS)
    [Anonymous Symbol]                       0x08002038   Section        0  usbd_cdc_if.o(.text.CDC_Control_HS)
    CDC_DeInit_HS                            0x08002099   Thumb Code     4  usbd_cdc_if.o(.text.CDC_DeInit_HS)
    [Anonymous Symbol]                       0x08002098   Section        0  usbd_cdc_if.o(.text.CDC_DeInit_HS)
    CDC_Init_HS                              0x080020a1   Thumb Code    50  usbd_cdc_if.o(.text.CDC_Init_HS)
    [Anonymous Symbol]                       0x080020a0   Section        0  usbd_cdc_if.o(.text.CDC_Init_HS)
    CDC_Receive_HS                           0x080020d9   Thumb Code   220  usbd_cdc_if.o(.text.CDC_Receive_HS)
    [Anonymous Symbol]                       0x080020d8   Section        0  usbd_cdc_if.o(.text.CDC_Receive_HS)
    [Anonymous Symbol]                       0x080021b8   Section        0  serial.o(.text.CDC_SendFeed)
    CDC_TransmitCplt_HS                      0x080021d9   Thumb Code    24  usbd_cdc_if.o(.text.CDC_TransmitCplt_HS)
    [Anonymous Symbol]                       0x080021d8   Section        0  usbd_cdc_if.o(.text.CDC_TransmitCplt_HS)
    [Anonymous Symbol]                       0x080021f0   Section        0  usbd_cdc_if.o(.text.CDC_Transmit_HS)
    [Anonymous Symbol]                       0x08002250   Section        0  control_task.o(.text.Chassis_Cmd_Trans)
    [Anonymous Symbol]                       0x08002380   Section        0  chassis.o(.text.Chassis_Ctrl_Remote)
    [Anonymous Symbol]                       0x08002500   Section        0  chassis.o(.text.Chassis_Enable)
    [Anonymous Symbol]                       0x08002538   Section        0  chassis.o(.text.Chassis_Get_Omega_Follow)
    [Anonymous Symbol]                       0x08002680   Section        0  chassis.o(.text.Chassis_Get_Omega_Ref)
    [Anonymous Symbol]                       0x08002730   Section        0  chassis.o(.text.Chassis_Init)
    Chassis_Power_Decode                     0x08002779   Thumb Code   160  supercap.o(.text.Chassis_Power_Decode)
    [Anonymous Symbol]                       0x08002778   Section        0  supercap.o(.text.Chassis_Power_Decode)
    [Anonymous Symbol]                       0x08002818   Section        0  supercap.o(.text.Chassis_Power_Init)
    [Anonymous Symbol]                       0x08002898   Section        0  chassis.o(.text.Chassis_Stop)
    Chassis_Task                             0x080028d1   Thumb Code    52  chassis_task.o(.text.Chassis_Task)
    [Anonymous Symbol]                       0x080028d0   Section        0  chassis_task.o(.text.Chassis_Task)
    [Anonymous Symbol]                       0x08002908   Section        0  chassis_task.o(.text.Chassis_Task_Init)
    Check_Len                                0x08002961   Thumb Code    32  message_center.o(.text.Check_Len)
    [Anonymous Symbol]                       0x08002960   Section        0  message_center.o(.text.Check_Len)
    Check_Name                               0x08002981   Thumb Code    26  message_center.o(.text.Check_Name)
    [Anonymous Symbol]                       0x08002980   Section        0  message_center.o(.text.Check_Name)
    [Anonymous Symbol]                       0x080029a0   Section        0  vpc.o(.text.Choose_VPC_Type)
    [Anonymous Symbol]                       0x08002af0   Section        0  gimbal.o(.text.Climbing_Hill)
    [Anonymous Symbol]                       0x08002b08   Section        0  vpc.o(.text.Consume_CDC_Cache)
    Control_Task                             0x08002b71   Thumb Code    96  control_task.o(.text.Control_Task)
    [Anonymous Symbol]                       0x08002b70   Section        0  control_task.o(.text.Control_Task)
    [Anonymous Symbol]                       0x08002bd8   Section        0  control_task.o(.text.Control_Task_Init)
    [Anonymous Symbol]                       0x08002c30   Section        0  user_lib.o(.text.Cross3d)
    [Anonymous Symbol]                       0x08002ca8   Section        0  dji_motor.o(.text.DJI_Motor_Control)
    [Anonymous Symbol]                       0x08003030   Section        0  dji_motor.o(.text.DJI_Motor_Enable)
    [Anonymous Symbol]                       0x08003040   Section        0  dji_motor.o(.text.DJI_Motor_Error_Detection)
    [Anonymous Symbol]                       0x08003048   Section        0  dji_motor.o(.text.DJI_Motor_Init)
    DJI_Motor_Lost_Callback                  0x08003149   Thumb Code    70  dji_motor.o(.text.DJI_Motor_Lost_Callback)
    [Anonymous Symbol]                       0x08003148   Section        0  dji_motor.o(.text.DJI_Motor_Lost_Callback)
    [Anonymous Symbol]                       0x08003190   Section        0  dji_motor.o(.text.DJI_Motor_Set_Ref)
    [Anonymous Symbol]                       0x080031a8   Section        0  dji_motor.o(.text.DJI_Motor_Stop)
    [Anonymous Symbol]                       0x080031b8   Section        0  stm32h7xx_it.o(.text.DMA1_Stream0_IRQHandler)
    [Anonymous Symbol]                       0x080031c8   Section        0  stm32h7xx_it.o(.text.DMA1_Stream1_IRQHandler)
    [Anonymous Symbol]                       0x080031d8   Section        0  stm32h7xx_it.o(.text.DMA1_Stream2_IRQHandler)
    [Anonymous Symbol]                       0x080031e8   Section        0  stm32h7xx_it.o(.text.DMA1_Stream3_IRQHandler)
    [Anonymous Symbol]                       0x080031f8   Section        0  stm32h7xx_it.o(.text.DMA2_Stream0_IRQHandler)
    DMA_CalcBaseAndBitshift                  0x08003209   Thumb Code   458  stm32h7xx_hal_dma.o(.text.DMA_CalcBaseAndBitshift)
    [Anonymous Symbol]                       0x08003208   Section        0  stm32h7xx_hal_dma.o(.text.DMA_CalcBaseAndBitshift)
    DMA_CalcDMAMUXChannelBaseAndMask         0x080033d9   Thumb Code   376  stm32h7xx_hal_dma.o(.text.DMA_CalcDMAMUXChannelBaseAndMask)
    [Anonymous Symbol]                       0x080033d8   Section        0  stm32h7xx_hal_dma.o(.text.DMA_CalcDMAMUXChannelBaseAndMask)
    DMA_CalcDMAMUXRequestGenBaseAndMask      0x08003551   Thumb Code   298  stm32h7xx_hal_dma.o(.text.DMA_CalcDMAMUXRequestGenBaseAndMask)
    [Anonymous Symbol]                       0x08003550   Section        0  stm32h7xx_hal_dma.o(.text.DMA_CalcDMAMUXRequestGenBaseAndMask)
    DMA_CheckFifoParam                       0x08003681   Thumb Code   240  stm32h7xx_hal_dma.o(.text.DMA_CheckFifoParam)
    [Anonymous Symbol]                       0x08003680   Section        0  stm32h7xx_hal_dma.o(.text.DMA_CheckFifoParam)
    DMA_SetConfig                            0x08003771   Thumb Code  1300  stm32h7xx_hal_dma.o(.text.DMA_SetConfig)
    [Anonymous Symbol]                       0x08003770   Section        0  stm32h7xx_hal_dma.o(.text.DMA_SetConfig)
    [Anonymous Symbol]                       0x08003c88   Section        0  dm_motor.o(.text.DM_DM124_Ctrl)
    [Anonymous Symbol]                       0x08003cf0   Section        0  dm_motor.o(.text.DM_MIT_Ctrl)
    [Anonymous Symbol]                       0x08003e40   Section        0  dm_motor.o(.text.DM_Motor_Control)
    [Anonymous Symbol]                       0x080041c0   Section        0  dm_motor.o(.text.DM_Motor_DISABLE)
    DM_Motor_Decode                          0x08004219   Thumb Code   300  dm_motor.o(.text.DM_Motor_Decode)
    [Anonymous Symbol]                       0x08004218   Section        0  dm_motor.o(.text.DM_Motor_Decode)
    [Anonymous Symbol]                       0x08004358   Section        0  dm_motor.o(.text.DM_Motor_ENABLE)
    [Anonymous Symbol]                       0x080043b0   Section        0  dm_motor.o(.text.DM_Motor_Init)
    DM_Motor_Lost_Callback                   0x080044f1   Thumb Code    26  dm_motor.o(.text.DM_Motor_Lost_Callback)
    [Anonymous Symbol]                       0x080044f0   Section        0  dm_motor.o(.text.DM_Motor_Lost_Callback)
    [Anonymous Symbol]                       0x08004510   Section        0  dm_motor.o(.text.DM_Motor_SetTar)
    DM_Motor_Set_Mode                        0x08004529   Thumb Code    52  dm_motor.o(.text.DM_Motor_Set_Mode)
    [Anonymous Symbol]                       0x08004528   Section        0  dm_motor.o(.text.DM_Motor_Set_Mode)
    [Anonymous Symbol]                       0x08004560   Section        0  dm_motor.o(.text.DM_Motor_Start)
    [Anonymous Symbol]                       0x080045b0   Section        0  dm_motor.o(.text.DM_Motor_Stop)
    [Anonymous Symbol]                       0x08004600   Section        0  dm_motor.o(.text.DM_Pos_Speed_Ctrl)
    [Anonymous Symbol]                       0x08004698   Section        0  dm_motor.o(.text.DM_Speed_Ctrl)
    DWT_CNT_Update                           0x080046f9   Thumb Code   104  bsp_dwt.o(.text.DWT_CNT_Update)
    [Anonymous Symbol]                       0x080046f8   Section        0  bsp_dwt.o(.text.DWT_CNT_Update)
    [Anonymous Symbol]                       0x08004760   Section        0  bsp_dwt.o(.text.DWT_Delay)
    [Anonymous Symbol]                       0x080047b8   Section        0  bsp_dwt.o(.text.DWT_GetDeltaT)
    [Anonymous Symbol]                       0x08004808   Section        0  bsp_dwt.o(.text.DWT_GetTimeline_ms)
    [Anonymous Symbol]                       0x08004850   Section        0  bsp_dwt.o(.text.DWT_GetTimeline_s)
    [Anonymous Symbol]                       0x080048a0   Section        0  bsp_dwt.o(.text.DWT_Init)
    DWT_System_Time_Update                   0x08004931   Thumb Code   252  bsp_dwt.o(.text.DWT_System_Time_Update)
    [Anonymous Symbol]                       0x08004930   Section        0  bsp_dwt.o(.text.DWT_System_Time_Update)
    [Anonymous Symbol]                       0x08004a30   Section        0  stm32h7xx_it.o(.text.DebugMon_Handler)
    Decode_DJI_Motor                         0x08004a39   Thumb Code   592  dji_motor.o(.text.Decode_DJI_Motor)
    [Anonymous Symbol]                       0x08004a38   Section        0  dji_motor.o(.text.Decode_DJI_Motor)
    [Anonymous Symbol]                       0x08004cb0   Section        0  user_lib.o(.text.Dot3d)
    EKF_Quaternion_Init                      0x08004ce9   Thumb Code   368  ins.o(.text.EKF_Quaternion_Init)
    [Anonymous Symbol]                       0x08004ce8   Section        0  ins.o(.text.EKF_Quaternion_Init)
    EarthFrameToBodyFrame                    0x08004e61   Thumb Code   258  ins.o(.text.EarthFrameToBodyFrame)
    [Anonymous Symbol]                       0x08004e60   Section        0  ins.o(.text.EarthFrameToBodyFrame)
    [Anonymous Symbol]                       0x08004f68   Section        0  main.o(.text.Error_Handler)
    [Anonymous Symbol]                       0x08004f78   Section        0  system_stm32h7xx.o(.text.ExitRun0Mode)
    [Anonymous Symbol]                       0x08004fa0   Section        0  stm32h7xx_it.o(.text.FDCAN1_IT0_IRQHandler)
    [Anonymous Symbol]                       0x08004fb0   Section        0  stm32h7xx_it.o(.text.FDCAN1_IT1_IRQHandler)
    [Anonymous Symbol]                       0x08004fc0   Section        0  stm32h7xx_it.o(.text.FDCAN2_IT0_IRQHandler)
    [Anonymous Symbol]                       0x08004fd0   Section        0  stm32h7xx_it.o(.text.FDCAN2_IT1_IRQHandler)
    [Anonymous Symbol]                       0x08004fe0   Section        0  stm32h7xx_it.o(.text.FDCAN3_IT0_IRQHandler)
    [Anonymous Symbol]                       0x08004ff0   Section        0  stm32h7xx_it.o(.text.FDCAN3_IT1_IRQHandler)
    FDCAN_CalcultateRamBlockAddresses        0x08005001   Thumb Code   706  stm32h7xx_hal_fdcan.o(.text.FDCAN_CalcultateRamBlockAddresses)
    [Anonymous Symbol]                       0x08005000   Section        0  stm32h7xx_hal_fdcan.o(.text.FDCAN_CalcultateRamBlockAddresses)
    FDCAN_CopyMessageToRAM                   0x080052c9   Thumb Code   184  stm32h7xx_hal_fdcan.o(.text.FDCAN_CopyMessageToRAM)
    [Anonymous Symbol]                       0x080052c8   Section        0  stm32h7xx_hal_fdcan.o(.text.FDCAN_CopyMessageToRAM)
    Frame_Device_Init                        0x08005381   Thumb Code   128  robot_frame_init.o(.text.Frame_Device_Init)
    [Anonymous Symbol]                       0x08005380   Section        0  robot_frame_init.o(.text.Frame_Device_Init)
    Frame_MCU_Init                           0x08005401   Thumb Code    12  robot_frame_init.o(.text.Frame_MCU_Init)
    [Anonymous Symbol]                       0x08005400   Section        0  robot_frame_init.o(.text.Frame_MCU_Init)
    Frame_Task_Init                          0x08005411   Thumb Code    36  robot_frame_init.o(.text.Frame_Task_Init)
    [Anonymous Symbol]                       0x08005410   Section        0  robot_frame_init.o(.text.Frame_Task_Init)
    [Anonymous Symbol]                       0x08005438   Section        0  bsp_gpio.o(.text.GPIO_Register)
    [Anonymous Symbol]                       0x080054a8   Section        0  crc.o(.text.Get_CRC16_Check_Sum)
    [Anonymous Symbol]                       0x08005510   Section        0  crc.o(.text.Get_CRC8_Check_Sum)
    Get_SerialNum                            0x08005559   Thumb Code    92  usbd_desc.o(.text.Get_SerialNum)
    [Anonymous Symbol]                       0x08005558   Section        0  usbd_desc.o(.text.Get_SerialNum)
    [Anonymous Symbol]                       0x080055b8   Section        0  gimbal.o(.text.Gimbal_Control_Remote)
    __arm_cp.6_24                            0x080059a0   Number         4  gimbal.o(.text.Gimbal_Control_Remote)
    __arm_cp.6_30                            0x080059b8   Number         4  gimbal.o(.text.Gimbal_Control_Remote)
    __arm_cp.6_31                            0x080059bc   Number         4  gimbal.o(.text.Gimbal_Control_Remote)
    __arm_cp.6_32                            0x080059c0   Number         4  gimbal.o(.text.Gimbal_Control_Remote)
    __arm_cp.6_33                            0x080059c4   Number         4  gimbal.o(.text.Gimbal_Control_Remote)
    __arm_cp.6_34                            0x080059c8   Number         4  gimbal.o(.text.Gimbal_Control_Remote)
    __arm_cp.6_35                            0x080059cc   Number         4  gimbal.o(.text.Gimbal_Control_Remote)
    __arm_cp.6_40                            0x080059e0   Number         4  gimbal.o(.text.Gimbal_Control_Remote)
    __arm_cp.6_44                            0x08006150   Number         4  gimbal.o(.text.Gimbal_Control_Remote)
    __arm_cp.6_45                            0x08006154   Number         4  gimbal.o(.text.Gimbal_Control_Remote)
    __arm_cp.6_47                            0x08006160   Number         4  gimbal.o(.text.Gimbal_Control_Remote)
    __arm_cp.6_48                            0x08006164   Number         4  gimbal.o(.text.Gimbal_Control_Remote)
    __arm_cp.6_49                            0x08006168   Number         4  gimbal.o(.text.Gimbal_Control_Remote)
    __arm_cp.6_50                            0x0800616c   Number         4  gimbal.o(.text.Gimbal_Control_Remote)
    __arm_cp.6_51                            0x08006170   Number         4  gimbal.o(.text.Gimbal_Control_Remote)
    [Anonymous Symbol]                       0x08006850   Section        0  gimbal.o(.text.Gimbal_Disable)
    [Anonymous Symbol]                       0x08006880   Section        0  gimbal.o(.text.Gimbal_Enable)
    [Anonymous Symbol]                       0x080068b0   Section        0  gimbal.o(.text.Gimbal_Init)
    [Anonymous Symbol]                       0x08006928   Section        0  gimbal.o(.text.Gimbal_Stop)
    Gimbal_Task                              0x08006959   Thumb Code   132  gimbal_task.o(.text.Gimbal_Task)
    [Anonymous Symbol]                       0x08006958   Section        0  gimbal_task.o(.text.Gimbal_Task)
    [Anonymous Symbol]                       0x080069e0   Section        0  gimbal_task.o(.text.Gimbal_Task_Init)
    [Anonymous Symbol]                       0x08006a38   Section        0  ramp.o(.text.Gimbal_limit)
    [Anonymous Symbol]                       0x08006a90   Section        0  stm32h7xx_hal_dma.o(.text.HAL_DMA_Abort)
    [Anonymous Symbol]                       0x08007408   Section        0  stm32h7xx_hal_dma.o(.text.HAL_DMA_Abort_IT)
    [Anonymous Symbol]                       0x08007ab8   Section        0  stm32h7xx_hal_dma.o(.text.HAL_DMA_DeInit)
    [Anonymous Symbol]                       0x08007f38   Section        0  stm32h7xx_hal_dma.o(.text.HAL_DMA_GetError)
    [Anonymous Symbol]                       0x08007f48   Section        0  stm32h7xx_hal_dma.o(.text.HAL_DMA_IRQHandler)
    [Anonymous Symbol]                       0x08009108   Section        0  stm32h7xx_hal_dma.o(.text.HAL_DMA_Init)
    [Anonymous Symbol]                       0x08009a68   Section        0  stm32h7xx_hal_dma.o(.text.HAL_DMA_Start_IT)
    [Anonymous Symbol]                       0x0800a170   Section        0  stm32h7xx_hal.o(.text.HAL_Delay)
    [Anonymous Symbol]                       0x0800a1b8   Section        0  stm32h7xx_hal_fdcan.o(.text.HAL_FDCAN_AbortTxRequest)
    [Anonymous Symbol]                       0x0800a200   Section        0  stm32h7xx_hal_fdcan.o(.text.HAL_FDCAN_ActivateNotification)
    [Anonymous Symbol]                       0x0800a300   Section        0  stm32h7xx_hal_fdcan.o(.text.HAL_FDCAN_AddMessageToTxFifoQ)
    [Anonymous Symbol]                       0x0800a3d0   Section        0  stm32h7xx_hal_fdcan.o(.text.HAL_FDCAN_ClockCalibrationCallback)
    [Anonymous Symbol]                       0x0800a3e0   Section        0  stm32h7xx_hal_fdcan.o(.text.HAL_FDCAN_ConfigFifoWatermark)
    [Anonymous Symbol]                       0x0800a488   Section        0  stm32h7xx_hal_fdcan.o(.text.HAL_FDCAN_ConfigFilter)
    [Anonymous Symbol]                       0x0800a5a0   Section        0  stm32h7xx_hal_fdcan.o(.text.HAL_FDCAN_ConfigGlobalFilter)
    [Anonymous Symbol]                       0x0800a600   Section        0  stm32h7xx_hal_fdcan.o(.text.HAL_FDCAN_ErrorCallback)
    [Anonymous Symbol]                       0x0800a608   Section        0  stm32h7xx_hal_fdcan.o(.text.HAL_FDCAN_ErrorStatusCallback)
    [Anonymous Symbol]                       0x0800a618   Section        0  stm32h7xx_hal_fdcan.o(.text.HAL_FDCAN_GetRxFifoFillLevel)
    [Anonymous Symbol]                       0x0800a650   Section        0  stm32h7xx_hal_fdcan.o(.text.HAL_FDCAN_GetRxMessage)
    [Anonymous Symbol]                       0x0800a948   Section        0  stm32h7xx_hal_fdcan.o(.text.HAL_FDCAN_GetTxFifoFreeLevel)
    [Anonymous Symbol]                       0x0800a960   Section        0  stm32h7xx_hal_fdcan.o(.text.HAL_FDCAN_HighPriorityMessageCallback)
    [Anonymous Symbol]                       0x0800a968   Section        0  stm32h7xx_hal_fdcan.o(.text.HAL_FDCAN_IRQHandler)
    [Anonymous Symbol]                       0x0800af50   Section        0  stm32h7xx_hal_fdcan.o(.text.HAL_FDCAN_Init)
    [Anonymous Symbol]                       0x0800b330   Section        0  fdcan.o(.text.HAL_FDCAN_MspInit)
    [Anonymous Symbol]                       0x0800b5c8   Section        0  stm32h7xx_hal_fdcan.o(.text.HAL_FDCAN_RxBufferNewMessageCallback)
    [Anonymous Symbol]                       0x0800b5d0   Section        0  bsp_can.o(.text.HAL_FDCAN_RxFifo0Callback)
    [Anonymous Symbol]                       0x0800b5e8   Section        0  bsp_can.o(.text.HAL_FDCAN_RxFifo1Callback)
    [Anonymous Symbol]                       0x0800b600   Section        0  stm32h7xx_hal_fdcan.o(.text.HAL_FDCAN_Start)
    [Anonymous Symbol]                       0x0800b650   Section        0  stm32h7xx_hal_fdcan.o(.text.HAL_FDCAN_Stop)
    [Anonymous Symbol]                       0x0800b740   Section        0  stm32h7xx_hal_fdcan.o(.text.HAL_FDCAN_TT_GlobalTimeCallback)
    [Anonymous Symbol]                       0x0800b750   Section        0  stm32h7xx_hal_fdcan.o(.text.HAL_FDCAN_TT_ScheduleSyncCallback)
    [Anonymous Symbol]                       0x0800b760   Section        0  stm32h7xx_hal_fdcan.o(.text.HAL_FDCAN_TT_StopWatchCallback)
    [Anonymous Symbol]                       0x0800b770   Section        0  stm32h7xx_hal_fdcan.o(.text.HAL_FDCAN_TT_TimeMarkCallback)
    [Anonymous Symbol]                       0x0800b780   Section        0  stm32h7xx_hal_fdcan.o(.text.HAL_FDCAN_TimeoutOccurredCallback)
    [Anonymous Symbol]                       0x0800b788   Section        0  stm32h7xx_hal_fdcan.o(.text.HAL_FDCAN_TimestampWraparoundCallback)
    [Anonymous Symbol]                       0x0800b790   Section        0  stm32h7xx_hal_fdcan.o(.text.HAL_FDCAN_TxBufferAbortCallback)
    [Anonymous Symbol]                       0x0800b7a0   Section        0  stm32h7xx_hal_fdcan.o(.text.HAL_FDCAN_TxBufferCompleteCallback)
    [Anonymous Symbol]                       0x0800b7b0   Section        0  stm32h7xx_hal_fdcan.o(.text.HAL_FDCAN_TxEventFifoCallback)
    [Anonymous Symbol]                       0x0800b7c0   Section        0  stm32h7xx_hal_fdcan.o(.text.HAL_FDCAN_TxFifoEmptyCallback)
    [Anonymous Symbol]                       0x0800b7c8   Section        0  stm32h7xx_hal_gpio.o(.text.HAL_GPIO_DeInit)
    [Anonymous Symbol]                       0x0800b9f8   Section        0  stm32h7xx_hal_gpio.o(.text.HAL_GPIO_Init)
    [Anonymous Symbol]                       0x0800bda0   Section        0  stm32h7xx_hal_gpio.o(.text.HAL_GPIO_ReadPin)
    [Anonymous Symbol]                       0x0800bdd0   Section        0  stm32h7xx_hal_gpio.o(.text.HAL_GPIO_WritePin)
    [Anonymous Symbol]                       0x0800be00   Section        0  stm32h7xx_hal.o(.text.HAL_GetTick)
    [Anonymous Symbol]                       0x0800be10   Section        0  stm32h7xx_hal_i2c_ex.o(.text.HAL_I2CEx_ConfigAnalogFilter)
    [Anonymous Symbol]                       0x0800bea8   Section        0  stm32h7xx_hal_i2c_ex.o(.text.HAL_I2CEx_ConfigDigitalFilter)
    [Anonymous Symbol]                       0x0800bf50   Section        0  stm32h7xx_hal_i2c.o(.text.HAL_I2C_Init)
    [Anonymous Symbol]                       0x0800c068   Section        0  i2c.o(.text.HAL_I2C_MspInit)
    [Anonymous Symbol]                       0x0800c118   Section        0  stm32h7xx_hal.o(.text.HAL_IncTick)
    [Anonymous Symbol]                       0x0800c138   Section        0  stm32h7xx_hal.o(.text.HAL_Init)
    [Anonymous Symbol]                       0x0800c1b8   Section        0  stm32h7xx_hal_timebase_tim.o(.text.HAL_InitTick)
    [Anonymous Symbol]                       0x0800c298   Section        0  stm32h7xx_hal_msp.o(.text.HAL_MspInit)
    [Anonymous Symbol]                       0x0800c2d0   Section        0  stm32h7xx_hal_cortex.o(.text.HAL_NVIC_DisableIRQ)
    [Anonymous Symbol]                       0x0800c2e8   Section        0  stm32h7xx_hal_cortex.o(.text.HAL_NVIC_EnableIRQ)
    [Anonymous Symbol]                       0x0800c300   Section        0  stm32h7xx_hal_cortex.o(.text.HAL_NVIC_SetPriority)
    [Anonymous Symbol]                       0x0800c330   Section        0  stm32h7xx_hal_cortex.o(.text.HAL_NVIC_SetPriorityGrouping)
    [Anonymous Symbol]                       0x0800c340   Section        0  stm32h7xx_hal_pcd_ex.o(.text.HAL_PCDEx_ActivateLPM)
    [Anonymous Symbol]                       0x0800c378   Section        0  stm32h7xx_hal_pcd_ex.o(.text.HAL_PCDEx_LPM_Callback)
    [Anonymous Symbol]                       0x0800c388   Section        0  stm32h7xx_hal_pcd_ex.o(.text.HAL_PCDEx_SetRxFiFo)
    [Anonymous Symbol]                       0x0800c3a0   Section        0  stm32h7xx_hal_pcd_ex.o(.text.HAL_PCDEx_SetTxFiFo)
    [Anonymous Symbol]                       0x0800c440   Section        0  usbd_conf.o(.text.HAL_PCD_ConnectCallback)
    [Anonymous Symbol]                       0x0800c458   Section        0  usbd_conf.o(.text.HAL_PCD_DataInStageCallback)
    [Anonymous Symbol]                       0x0800c480   Section        0  usbd_conf.o(.text.HAL_PCD_DataOutStageCallback)
    [Anonymous Symbol]                       0x0800c4a8   Section        0  usbd_conf.o(.text.HAL_PCD_DisconnectCallback)
    [Anonymous Symbol]                       0x0800c4c0   Section        0  stm32h7xx_hal_pcd.o(.text.HAL_PCD_EP_Abort)
    [Anonymous Symbol]                       0x0800c520   Section        0  stm32h7xx_hal_pcd.o(.text.HAL_PCD_EP_Close)
    [Anonymous Symbol]                       0x0800c5c8   Section        0  stm32h7xx_hal_pcd.o(.text.HAL_PCD_EP_ClrStall)
    [Anonymous Symbol]                       0x0800c690   Section        0  stm32h7xx_hal_pcd.o(.text.HAL_PCD_EP_GetRxCount)
    [Anonymous Symbol]                       0x0800c6b8   Section        0  stm32h7xx_hal_pcd.o(.text.HAL_PCD_EP_Open)
    [Anonymous Symbol]                       0x0800c7a8   Section        0  stm32h7xx_hal_pcd.o(.text.HAL_PCD_EP_Receive)
    [Anonymous Symbol]                       0x0800c818   Section        0  stm32h7xx_hal_pcd.o(.text.HAL_PCD_EP_SetStall)
    [Anonymous Symbol]                       0x0800c8f8   Section        0  stm32h7xx_hal_pcd.o(.text.HAL_PCD_EP_Transmit)
    [Anonymous Symbol]                       0x0800c968   Section        0  stm32h7xx_hal_pcd.o(.text.HAL_PCD_IRQHandler)
    [Anonymous Symbol]                       0x0800d1f8   Section        0  usbd_conf.o(.text.HAL_PCD_ISOINIncompleteCallback)
    [Anonymous Symbol]                       0x0800d218   Section        0  usbd_conf.o(.text.HAL_PCD_ISOOUTIncompleteCallback)
    [Anonymous Symbol]                       0x0800d238   Section        0  stm32h7xx_hal_pcd.o(.text.HAL_PCD_Init)
    [Anonymous Symbol]                       0x0800d478   Section        0  usbd_conf.o(.text.HAL_PCD_MspInit)
    [Anonymous Symbol]                       0x0800d540   Section        0  usbd_conf.o(.text.HAL_PCD_ResetCallback)
    [Anonymous Symbol]                       0x0800d598   Section        0  usbd_conf.o(.text.HAL_PCD_ResumeCallback)
    [Anonymous Symbol]                       0x0800d5b0   Section        0  usbd_conf.o(.text.HAL_PCD_SOFCallback)
    [Anonymous Symbol]                       0x0800d5c8   Section        0  stm32h7xx_hal_pcd.o(.text.HAL_PCD_SetAddress)
    [Anonymous Symbol]                       0x0800d628   Section        0  usbd_conf.o(.text.HAL_PCD_SetupStageCallback)
    [Anonymous Symbol]                       0x0800d640   Section        0  stm32h7xx_hal_pcd.o(.text.HAL_PCD_Start)
    [Anonymous Symbol]                       0x0800d6c0   Section        0  usbd_conf.o(.text.HAL_PCD_SuspendCallback)
    [Anonymous Symbol]                       0x0800d700   Section        0  stm32h7xx_hal_pwr_ex.o(.text.HAL_PWREx_ConfigSupply)
    [Anonymous Symbol]                       0x0800d7a8   Section        0  stm32h7xx_hal_pwr_ex.o(.text.HAL_PWREx_EnableUSBVoltageDetector)
    [Anonymous Symbol]                       0x0800d7c0   Section        0  stm32h7xx_hal_rcc_ex.o(.text.HAL_RCCEx_GetD3PCLK1Freq)
    [Anonymous Symbol]                       0x0800d7e8   Section        0  stm32h7xx_hal_rcc_ex.o(.text.HAL_RCCEx_GetPLL2ClockFreq)
    [Anonymous Symbol]                       0x0800da98   Section        0  stm32h7xx_hal_rcc_ex.o(.text.HAL_RCCEx_GetPLL3ClockFreq)
    [Anonymous Symbol]                       0x0800dd48   Section        0  stm32h7xx_hal_rcc_ex.o(.text.HAL_RCCEx_PeriphCLKConfig)
    [Anonymous Symbol]                       0x0800ed38   Section        0  stm32h7xx_hal_rcc.o(.text.HAL_RCC_ClockConfig)
    [Anonymous Symbol]                       0x0800f1d0   Section        0  stm32h7xx_hal_rcc.o(.text.HAL_RCC_GetClockConfig)
    [Anonymous Symbol]                       0x0800f258   Section        0  stm32h7xx_hal_rcc.o(.text.HAL_RCC_GetHCLKFreq)
    [Anonymous Symbol]                       0x0800f2b0   Section        0  stm32h7xx_hal_rcc.o(.text.HAL_RCC_GetPCLK1Freq)
    [Anonymous Symbol]                       0x0800f2d8   Section        0  stm32h7xx_hal_rcc.o(.text.HAL_RCC_GetPCLK2Freq)
    [Anonymous Symbol]                       0x0800f300   Section        0  stm32h7xx_hal_rcc.o(.text.HAL_RCC_GetSysClockFreq)
    [Anonymous Symbol]                       0x0800f610   Section        0  stm32h7xx_hal_rcc.o(.text.HAL_RCC_OscConfig)
    [Anonymous Symbol]                       0x08010030   Section        0  stm32h7xx_hal_uart_ex.o(.text.HAL_RS485Ex_Init)
    [Anonymous Symbol]                       0x08010100   Section        0  stm32h7xx_hal_spi.o(.text.HAL_SPI_ErrorCallback)
    [Anonymous Symbol]                       0x08010108   Section        0  stm32h7xx_hal_spi.o(.text.HAL_SPI_IRQHandler)
    [Anonymous Symbol]                       0x08010498   Section        0  stm32h7xx_hal_spi.o(.text.HAL_SPI_Init)
    [Anonymous Symbol]                       0x08010730   Section        0  spi.o(.text.HAL_SPI_MspInit)
    [Anonymous Symbol]                       0x080108e0   Section        0  bsp_spi.o(.text.HAL_SPI_RxCpltCallback)
    [Anonymous Symbol]                       0x08010980   Section        0  stm32h7xx_hal_spi.o(.text.HAL_SPI_SuspendCallback)
    [Anonymous Symbol]                       0x08010988   Section        0  stm32h7xx_hal_spi.o(.text.HAL_SPI_Transmit)
    [Anonymous Symbol]                       0x08010d70   Section        0  stm32h7xx_hal_spi.o(.text.HAL_SPI_TransmitReceive)
    [Anonymous Symbol]                       0x08011478   Section        0  stm32h7xx_hal_spi.o(.text.HAL_SPI_TransmitReceive_DMA)
    [Anonymous Symbol]                       0x08011818   Section        0  stm32h7xx_hal_spi.o(.text.HAL_SPI_TransmitReceive_IT)
    [Anonymous Symbol]                       0x08011a68   Section        0  stm32h7xx_hal_spi.o(.text.HAL_SPI_Transmit_DMA)
    [Anonymous Symbol]                       0x08011d18   Section        0  stm32h7xx_hal_spi.o(.text.HAL_SPI_Transmit_IT)
    [Anonymous Symbol]                       0x08011e88   Section        0  stm32h7xx_hal_spi.o(.text.HAL_SPI_TxCpltCallback)
    [Anonymous Symbol]                       0x08011e90   Section        0  stm32h7xx_hal_spi.o(.text.HAL_SPI_TxHalfCpltCallback)
    [Anonymous Symbol]                       0x08011e98   Section        0  bsp_spi.o(.text.HAL_SPI_TxRxCpltCallback)
    [Anonymous Symbol]                       0x08011ea8   Section        0  stm32h7xx_hal_spi.o(.text.HAL_SPI_TxRxHalfCpltCallback)
    [Anonymous Symbol]                       0x08011eb0   Section        0  stm32h7xx_hal.o(.text.HAL_SYSCFG_AnalogSwitchConfig)
    [Anonymous Symbol]                       0x08011ed0   Section        0  stm32h7xx_hal_tim_ex.o(.text.HAL_TIMEx_Break2Callback)
    [Anonymous Symbol]                       0x08011ed8   Section        0  stm32h7xx_hal_tim_ex.o(.text.HAL_TIMEx_BreakCallback)
    [Anonymous Symbol]                       0x08011ee0   Section        0  stm32h7xx_hal_tim_ex.o(.text.HAL_TIMEx_CommutCallback)
    [Anonymous Symbol]                       0x08011ee8   Section        0  stm32h7xx_hal_tim_ex.o(.text.HAL_TIMEx_ConfigBreakDeadTime)
    [Anonymous Symbol]                       0x08012018   Section        0  stm32h7xx_hal_tim_ex.o(.text.HAL_TIMEx_MasterConfigSynchronization)
    [Anonymous Symbol]                       0x08012198   Section        0  stm32h7xx_hal_tim.o(.text.HAL_TIM_Base_Init)
    [Anonymous Symbol]                       0x08012240   Section        0  stm32h7xx_hal_tim.o(.text.HAL_TIM_Base_MspInit)
    [Anonymous Symbol]                       0x08012248   Section        0  stm32h7xx_hal_tim.o(.text.HAL_TIM_Base_Start_IT)
    [Anonymous Symbol]                       0x08012370   Section        0  stm32h7xx_hal_tim.o(.text.HAL_TIM_IC_CaptureCallback)
    [Anonymous Symbol]                       0x08012378   Section        0  stm32h7xx_hal_tim.o(.text.HAL_TIM_IRQHandler)
    [Anonymous Symbol]                       0x080125c8   Section        0  tim.o(.text.HAL_TIM_MspPostInit)
    [Anonymous Symbol]                       0x08012720   Section        0  stm32h7xx_hal_tim.o(.text.HAL_TIM_OC_DelayElapsedCallback)
    [Anonymous Symbol]                       0x08012728   Section        0  stm32h7xx_hal_tim.o(.text.HAL_TIM_PWM_ConfigChannel)
    [Anonymous Symbol]                       0x080128d8   Section        0  stm32h7xx_hal_tim.o(.text.HAL_TIM_PWM_Init)
    [Anonymous Symbol]                       0x08012980   Section        0  tim.o(.text.HAL_TIM_PWM_MspInit)
    [Anonymous Symbol]                       0x08012a50   Section        0  bsp_pwm.o(.text.HAL_TIM_PWM_PulseFinishedCallback)
    [Anonymous Symbol]                       0x08012af0   Section        0  stm32h7xx_hal_tim.o(.text.HAL_TIM_PWM_Start)
    [Anonymous Symbol]                       0x08012d98   Section        0  main.o(.text.HAL_TIM_PeriodElapsedCallback)
    [Anonymous Symbol]                       0x08012dc0   Section        0  stm32h7xx_hal_tim.o(.text.HAL_TIM_TriggerCallback)
    [Anonymous Symbol]                       0x08012dc8   Section        0  stm32h7xx_hal_uart_ex.o(.text.HAL_UARTEx_DisableFifoMode)
    [Anonymous Symbol]                       0x08012e48   Section        0  stm32h7xx_hal_uart_ex.o(.text.HAL_UARTEx_ReceiveToIdle_DMA)
    [Anonymous Symbol]                       0x08012ef8   Section        0  bsp_usart.o(.text.HAL_UARTEx_RxEventCallback)
    [Anonymous Symbol]                       0x08013298   Section        0  stm32h7xx_hal_uart_ex.o(.text.HAL_UARTEx_RxFifoFullCallback)
    [Anonymous Symbol]                       0x080132a0   Section        0  stm32h7xx_hal_uart_ex.o(.text.HAL_UARTEx_SetRxFifoThreshold)
    [Anonymous Symbol]                       0x08013330   Section        0  stm32h7xx_hal_uart_ex.o(.text.HAL_UARTEx_SetTxFifoThreshold)
    [Anonymous Symbol]                       0x080133c0   Section        0  stm32h7xx_hal_uart_ex.o(.text.HAL_UARTEx_TxFifoEmptyCallback)
    [Anonymous Symbol]                       0x080133c8   Section        0  stm32h7xx_hal_uart_ex.o(.text.HAL_UARTEx_WakeupCallback)
    [Anonymous Symbol]                       0x080133d0   Section        0  stm32h7xx_hal_uart.o(.text.HAL_UART_DMAStop)
    [Anonymous Symbol]                       0x080134f0   Section        0  stm32h7xx_hal_uart.o(.text.HAL_UART_DeInit)
    [Anonymous Symbol]                       0x08013570   Section        0  bsp_usart.o(.text.HAL_UART_ErrorCallback)
    [Anonymous Symbol]                       0x080139d0   Section        0  stm32h7xx_hal_uart.o(.text.HAL_UART_IRQHandler)
    [Anonymous Symbol]                       0x080140d0   Section        0  stm32h7xx_hal_uart.o(.text.HAL_UART_Init)
    [Anonymous Symbol]                       0x08014180   Section        0  usart.o(.text.HAL_UART_MspDeInit)
    [Anonymous Symbol]                       0x08014338   Section        0  usart.o(.text.HAL_UART_MspInit)
    [Anonymous Symbol]                       0x08014970   Section        0  rs485.o(.text.HAL_UART_RxCpltCallback)
    [Anonymous Symbol]                       0x08014978   Section        0  stm32h7xx_hal_uart.o(.text.HAL_UART_RxHalfCpltCallback)
    [Anonymous Symbol]                       0x08014980   Section        0  stm32h7xx_hal_uart.o(.text.HAL_UART_Transmit)
    [Anonymous Symbol]                       0x08014ab8   Section        0  stm32h7xx_hal_uart.o(.text.HAL_UART_Transmit_DMA)
    [Anonymous Symbol]                       0x08014bc0   Section        0  stm32h7xx_hal_uart.o(.text.HAL_UART_Transmit_IT)
    [Anonymous Symbol]                       0x08014cf0   Section        0  rs485.o(.text.HAL_UART_TxCpltCallback)
    [Anonymous Symbol]                       0x08014d30   Section        0  stm32h7xx_hal_uart.o(.text.HAL_UART_TxHalfCpltCallback)
    H_K_R_Adjustment                         0x08014d39   Thumb Code   398  kalman_filter.o(.text.H_K_R_Adjustment)
    [Anonymous Symbol]                       0x08014d38   Section        0  kalman_filter.o(.text.H_K_R_Adjustment)
    [Anonymous Symbol]                       0x08014ec8   Section        0  stm32h7xx_it.o(.text.HardFault_Handler)
    IMU_QuaternionEKF_F_Linearization_P_Fading 0x08014ed1   Thumb Code   604  quaternionekf.o(.text.IMU_QuaternionEKF_F_Linearization_P_Fading)
    [Anonymous Symbol]                       0x08014ed0   Section        0  quaternionekf.o(.text.IMU_QuaternionEKF_F_Linearization_P_Fading)
    [Anonymous Symbol]                       0x08015130   Section        0  quaternionekf.o(.text.IMU_QuaternionEKF_Init)
    IMU_QuaternionEKF_Observe                0x08015281   Thumb Code    72  quaternionekf.o(.text.IMU_QuaternionEKF_Observe)
    [Anonymous Symbol]                       0x08015280   Section        0  quaternionekf.o(.text.IMU_QuaternionEKF_Observe)
    IMU_QuaternionEKF_SetH                   0x080152c9   Thumb Code   354  quaternionekf.o(.text.IMU_QuaternionEKF_SetH)
    [Anonymous Symbol]                       0x080152c8   Section        0  quaternionekf.o(.text.IMU_QuaternionEKF_SetH)
    [Anonymous Symbol]                       0x08015430   Section        0  quaternionekf.o(.text.IMU_QuaternionEKF_Update)
    IMU_QuaternionEKF_xhatUpdate             0x080159e9   Thumb Code  1612  quaternionekf.o(.text.IMU_QuaternionEKF_xhatUpdate)
    [Anonymous Symbol]                       0x080159e8   Section        0  quaternionekf.o(.text.IMU_QuaternionEKF_xhatUpdate)
    [Anonymous Symbol]                       0x08016048   Section        0  ins.o(.text.INS_Calculate)
    [Anonymous Symbol]                       0x08016428   Section        0  ins.o(.text.INS_Data_Update)
    [Anonymous Symbol]                       0x08016448   Section        0  ins.o(.text.INS_Init)
    INS_Task                                 0x080164a1   Thumb Code   148  ins_task.o(.text.INS_Task)
    [Anonymous Symbol]                       0x080164a0   Section        0  ins_task.o(.text.INS_Task)
    [Anonymous Symbol]                       0x08016538   Section        0  ins_task.o(.text.INS_Task_Init)
    IntToUnicode                             0x080165c1   Thumb Code   122  usbd_desc.o(.text.IntToUnicode)
    [Anonymous Symbol]                       0x080165c0   Section        0  usbd_desc.o(.text.IntToUnicode)
    [Anonymous Symbol]                       0x08016640   Section        0  kalman_filter.o(.text.Kalman_Filter_Init)
    [Anonymous Symbol]                       0x08016c38   Section        0  kalman_filter.o(.text.Kalman_Filter_Measure)
    [Anonymous Symbol]                       0x08016ca0   Section        0  kalman_filter.o(.text.Kalman_Filter_P_Update)
    [Anonymous Symbol]                       0x08016d20   Section        0  kalman_filter.o(.text.Kalman_Filter_PminusUpdate)
    [Anonymous Symbol]                       0x08016da0   Section        0  kalman_filter.o(.text.Kalman_Filter_SetK)
    [Anonymous Symbol]                       0x08016ea0   Section        0  kalman_filter.o(.text.Kalman_Filter_Update)
    [Anonymous Symbol]                       0x08017030   Section        0  kalman_filter.o(.text.Kalman_Filter_xhatMinusUpdate)
    [Anonymous Symbol]                       0x080170d8   Section        0  kalman_filter.o(.text.Kalman_Filter_xhatUpdate)
    [Anonymous Symbol]                       0x08017188   Section        0  kalman_one_filter.o(.text.Kalman_One_Filter)
    [Anonymous Symbol]                       0x08017220   Section        0  kalman_one_filter.o(.text.Kalman_One_Init)
    [Anonymous Symbol]                       0x08017258   Section        0  control_task.o(.text.KeyboardCtrl)
    __arm_cp.5_3                             0x08017730   Number         4  control_task.o(.text.KeyboardCtrl)
    __arm_cp.5_4                             0x08017734   Number         4  control_task.o(.text.KeyboardCtrl)
    [Anonymous Symbol]                       0x08017890   Section        0  dma.o(.text.MX_DMA_Init)
    [Anonymous Symbol]                       0x08017938   Section        0  fdcan.o(.text.MX_FDCAN1_Init)
    [Anonymous Symbol]                       0x080179b8   Section        0  fdcan.o(.text.MX_FDCAN2_Init)
    [Anonymous Symbol]                       0x08017a40   Section        0  fdcan.o(.text.MX_FDCAN3_Init)
    [Anonymous Symbol]                       0x08017ac8   Section        0  freertos.o(.text.MX_FREERTOS_Init)
    [Anonymous Symbol]                       0x08017af0   Section        0  gpio.o(.text.MX_GPIO_Init)
    [Anonymous Symbol]                       0x08017c48   Section        0  i2c.o(.text.MX_I2C2_Init)
    [Anonymous Symbol]                       0x08017cc0   Section        0  spi.o(.text.MX_SPI2_Init)
    [Anonymous Symbol]                       0x08017d38   Section        0  spi.o(.text.MX_SPI6_Init)
    [Anonymous Symbol]                       0x08017db0   Section        0  tim.o(.text.MX_TIM12_Init)
    [Anonymous Symbol]                       0x08017e58   Section        0  tim.o(.text.MX_TIM1_Init)
    [Anonymous Symbol]                       0x08017f60   Section        0  tim.o(.text.MX_TIM2_Init)
    [Anonymous Symbol]                       0x08018018   Section        0  tim.o(.text.MX_TIM3_Init)
    [Anonymous Symbol]                       0x080180b8   Section        0  usart.o(.text.MX_UART5_Init)
    [Anonymous Symbol]                       0x08018150   Section        0  usart.o(.text.MX_UART7_Init)
    [Anonymous Symbol]                       0x080181e0   Section        0  usart.o(.text.MX_USART10_UART_Init)
    [Anonymous Symbol]                       0x08018270   Section        0  usart.o(.text.MX_USART1_UART_Init)
    [Anonymous Symbol]                       0x08018300   Section        0  usart.o(.text.MX_USART2_UART_Init)
    [Anonymous Symbol]                       0x08018390   Section        0  usart.o(.text.MX_USART3_UART_Init)
    [Anonymous Symbol]                       0x08018428   Section        0  usb_device.o(.text.MX_USB_DEVICE_Init)
    [Anonymous Symbol]                       0x080184a8   Section        0  chassis.o(.text.Mecanum_Solve)
    [Anonymous Symbol]                       0x08018578   Section        0  stm32h7xx_it.o(.text.MemManage_Handler)
    Mode_handle                              0x08018581   Thumb Code   160  buzzer.o(.text.Mode_handle)
    [Anonymous Symbol]                       0x08018580   Section        0  buzzer.o(.text.Mode_handle)
    Motor_Sender_Grouping                    0x08018621   Thumb Code   498  dji_motor.o(.text.Motor_Sender_Grouping)
    [Anonymous Symbol]                       0x08018620   Section        0  dji_motor.o(.text.Motor_Sender_Grouping)
    [Anonymous Symbol]                       0x08018818   Section        0  stm32h7xx_it.o(.text.NMI_Handler)
    NVIC_EncodePriority                      0x08018821   Thumb Code   108  stm32h7xx_hal_cortex.o(.text.NVIC_EncodePriority)
    [Anonymous Symbol]                       0x08018820   Section        0  stm32h7xx_hal_cortex.o(.text.NVIC_EncodePriority)
    [Anonymous Symbol]                       0x08018890   Section        0  serial.o(.text.NV_UnPack_Data_ROS2)
    [Anonymous Symbol]                       0x08018908   Section        0  user_lib.o(.text.Norm3d)
    [Anonymous Symbol]                       0x08018970   Section        0  user_lib.o(.text.NormOf3d)
    [Anonymous Symbol]                       0x08018998   Section        0  gimbal.o(.text.Not_Climbing_Hill)
    NotePlay                                 0x080189b1   Thumb Code   340  buzzer.o(.text.NotePlay)
    [Anonymous Symbol]                       0x080189b0   Section        0  buzzer.o(.text.NotePlay)
    Note_handle                              0x08018b11   Thumb Code   308  buzzer.o(.text.Note_handle)
    [Anonymous Symbol]                       0x08018b10   Section        0  buzzer.o(.text.Note_handle)
    [Anonymous Symbol]                       0x08018c48   Section        0  stm32h7xx_it.o(.text.OTG_HS_IRQHandler)
    PCD_EP_OutSetupPacket_int                0x08018c59   Thumb Code   138  stm32h7xx_hal_pcd.o(.text.PCD_EP_OutSetupPacket_int)
    [Anonymous Symbol]                       0x08018c58   Section        0  stm32h7xx_hal_pcd.o(.text.PCD_EP_OutSetupPacket_int)
    PCD_EP_OutXfrComplete_int                0x08018ce9   Thumb Code   456  stm32h7xx_hal_pcd.o(.text.PCD_EP_OutXfrComplete_int)
    [Anonymous Symbol]                       0x08018ce8   Section        0  stm32h7xx_hal_pcd.o(.text.PCD_EP_OutXfrComplete_int)
    PCD_WriteEmptyTxFifo                     0x08018eb1   Thumb Code   306  stm32h7xx_hal_pcd.o(.text.PCD_WriteEmptyTxFifo)
    [Anonymous Symbol]                       0x08018eb0   Section        0  stm32h7xx_hal_pcd.o(.text.PCD_WriteEmptyTxFifo)
    [Anonymous Symbol]                       0x08018fe8   Section        0  pid.o(.text.PID_Increment)
    [Anonymous Symbol]                       0x08019128   Section        0  pid.o(.text.PID_Init)
    [Anonymous Symbol]                       0x08019188   Section        0  pid.o(.text.PID_Position)
    [Anonymous Symbol]                       0x08019388   Section        0  bsp_pwm.o(.text.PWM_Register)
    PWM_Select_Tclk                          0x08019439   Thumb Code   200  bsp_pwm.o(.text.PWM_Select_Tclk)
    [Anonymous Symbol]                       0x08019438   Section        0  bsp_pwm.o(.text.PWM_Select_Tclk)
    [Anonymous Symbol]                       0x08019500   Section        0  bsp_pwm.o(.text.PWM_Set_DutyRatio)
    [Anonymous Symbol]                       0x08019658   Section        0  bsp_pwm.o(.text.PWM_Set_Period)
    [Anonymous Symbol]                       0x080196c0   Section        0  port.o(.text.PendSV_Handler)
    pxCurrentTCBConst                        0x08019720   Number         0  port.o(.text.PendSV_Handler)
    Procotol_Task                            0x08019729   Thumb Code    52  procotol_task.o(.text.Procotol_Task)
    [Anonymous Symbol]                       0x08019728   Section        0  procotol_task.o(.text.Procotol_Task)
    [Anonymous Symbol]                       0x08019760   Section        0  procotol_task.o(.text.Procotol_Task_Init)
    [Anonymous Symbol]                       0x080197e8   Section        0  message_center.o(.text.Publisher_Register)
    RCCEx_PLL2_Config                        0x08019881   Thumb Code   458  stm32h7xx_hal_rcc_ex.o(.text.RCCEx_PLL2_Config)
    [Anonymous Symbol]                       0x08019880   Section        0  stm32h7xx_hal_rcc_ex.o(.text.RCCEx_PLL2_Config)
    RCCEx_PLL3_Config                        0x08019a51   Thumb Code   458  stm32h7xx_hal_rcc_ex.o(.text.RCCEx_PLL3_Config)
    [Anonymous Symbol]                       0x08019a50   Section        0  stm32h7xx_hal_rcc_ex.o(.text.RCCEx_PLL3_Config)
    RC_Lost_Callback                         0x08019c21   Thumb Code    38  remote_control.o(.text.RC_Lost_Callback)
    [Anonymous Symbol]                       0x08019c20   Section        0  remote_control.o(.text.RC_Lost_Callback)
    [Anonymous Symbol]                       0x08019c48   Section        0  ramp.o(.text.Ramp_data1)
    [Anonymous Symbol]                       0x08019d28   Section        0  ramp.o(.text.Ramp_data2)
    [Anonymous Symbol]                       0x08019e08   Section        0  ramp.o(.text.Ramp_data3)
    [Anonymous Symbol]                       0x08019ee8   Section        0  ramp.o(.text.Ramp_data4)
    Rectify_RC_joystick                      0x08019fc9   Thumb Code   100  remote_control.o(.text.Rectify_RC_joystick)
    [Anonymous Symbol]                       0x08019fc8   Section        0  remote_control.o(.text.Rectify_RC_joystick)
    [Anonymous Symbol]                       0x0801a030   Section        0  referee.o(.text.RefereeSolve)
    RefereeSolve_Rx_Callback                 0x0801a4d1   Thumb Code    34  referee.o(.text.RefereeSolve_Rx_Callback)
    [Anonymous Symbol]                       0x0801a4d0   Section        0  referee.o(.text.RefereeSolve_Rx_Callback)
    [Anonymous Symbol]                       0x0801a4f8   Section        0  referee.o(.text.Referee_Init)
    Referee_Lost_Callback                    0x0801a561   Thumb Code    40  referee.o(.text.Referee_Lost_Callback)
    [Anonymous Symbol]                       0x0801a560   Section        0  referee.o(.text.Referee_Lost_Callback)
    [Anonymous Symbol]                       0x0801a588   Section        0  remote_control.o(.text.Remote_Control_Init)
    Remote_Control_Rx_Callback               0x0801a5f1   Thumb Code    34  remote_control.o(.text.Remote_Control_Rx_Callback)
    [Anonymous Symbol]                       0x0801a5f0   Section        0  remote_control.o(.text.Remote_Control_Rx_Callback)
    [Anonymous Symbol]                       0x0801a618   Section        0  robot_frame_init.o(.text.Robot_Frame_Init)
    [Anonymous Symbol]                       0x0801a628   Section        0  stm32h7xx_it.o(.text.SPI2_IRQHandler)
    SPI_CloseTransfer                        0x0801a639   Thumb Code   278  stm32h7xx_hal_spi.o(.text.SPI_CloseTransfer)
    [Anonymous Symbol]                       0x0801a638   Section        0  stm32h7xx_hal_spi.o(.text.SPI_CloseTransfer)
    SPI_DMAAbortOnError                      0x0801a751   Thumb Code    44  stm32h7xx_hal_spi.o(.text.SPI_DMAAbortOnError)
    [Anonymous Symbol]                       0x0801a750   Section        0  stm32h7xx_hal_spi.o(.text.SPI_DMAAbortOnError)
    SPI_DMAError                             0x0801a781   Thumb Code    64  stm32h7xx_hal_spi.o(.text.SPI_DMAError)
    [Anonymous Symbol]                       0x0801a780   Section        0  stm32h7xx_hal_spi.o(.text.SPI_DMAError)
    SPI_DMAHalfTransmitCplt                  0x0801a7c1   Thumb Code    22  stm32h7xx_hal_spi.o(.text.SPI_DMAHalfTransmitCplt)
    [Anonymous Symbol]                       0x0801a7c0   Section        0  stm32h7xx_hal_spi.o(.text.SPI_DMAHalfTransmitCplt)
    SPI_DMAHalfTransmitReceiveCplt           0x0801a7d9   Thumb Code    22  stm32h7xx_hal_spi.o(.text.SPI_DMAHalfTransmitReceiveCplt)
    [Anonymous Symbol]                       0x0801a7d8   Section        0  stm32h7xx_hal_spi.o(.text.SPI_DMAHalfTransmitReceiveCplt)
    SPI_DMATransmitCplt                      0x0801a7f1   Thumb Code    66  stm32h7xx_hal_spi.o(.text.SPI_DMATransmitCplt)
    [Anonymous Symbol]                       0x0801a7f0   Section        0  stm32h7xx_hal_spi.o(.text.SPI_DMATransmitCplt)
    SPI_DMATransmitReceiveCplt               0x0801a839   Thumb Code    66  stm32h7xx_hal_spi.o(.text.SPI_DMATransmitReceiveCplt)
    [Anonymous Symbol]                       0x0801a838   Section        0  stm32h7xx_hal_spi.o(.text.SPI_DMATransmitReceiveCplt)
    SPI_GetPacketSize                        0x0801a881   Thumb Code    42  stm32h7xx_hal_spi.o(.text.SPI_GetPacketSize)
    [Anonymous Symbol]                       0x0801a880   Section        0  stm32h7xx_hal_spi.o(.text.SPI_GetPacketSize)
    [Anonymous Symbol]                       0x0801a8b0   Section        0  bsp_spi.o(.text.SPI_Register)
    SPI_RxISR_16BIT                          0x0801a939   Thumb Code    70  stm32h7xx_hal_spi.o(.text.SPI_RxISR_16BIT)
    [Anonymous Symbol]                       0x0801a938   Section        0  stm32h7xx_hal_spi.o(.text.SPI_RxISR_16BIT)
    SPI_RxISR_32BIT                          0x0801a981   Thumb Code    64  stm32h7xx_hal_spi.o(.text.SPI_RxISR_32BIT)
    [Anonymous Symbol]                       0x0801a980   Section        0  stm32h7xx_hal_spi.o(.text.SPI_RxISR_32BIT)
    SPI_RxISR_8BIT                           0x0801a9c1   Thumb Code    66  stm32h7xx_hal_spi.o(.text.SPI_RxISR_8BIT)
    [Anonymous Symbol]                       0x0801a9c0   Section        0  stm32h7xx_hal_spi.o(.text.SPI_RxISR_8BIT)
    [Anonymous Symbol]                       0x0801aa08   Section        0  bsp_spi.o(.text.SPI_Set_Mode)
    [Anonymous Symbol]                       0x0801aa50   Section        0  bsp_spi.o(.text.SPI_Transmit)
    [Anonymous Symbol]                       0x0801aad0   Section        0  bsp_spi.o(.text.SPI_Transmit_Receive)
    SPI_TxISR_16BIT                          0x0801ab81   Thumb Code    70  stm32h7xx_hal_spi.o(.text.SPI_TxISR_16BIT)
    [Anonymous Symbol]                       0x0801ab80   Section        0  stm32h7xx_hal_spi.o(.text.SPI_TxISR_16BIT)
    SPI_TxISR_32BIT                          0x0801abc9   Thumb Code    62  stm32h7xx_hal_spi.o(.text.SPI_TxISR_32BIT)
    [Anonymous Symbol]                       0x0801abc8   Section        0  stm32h7xx_hal_spi.o(.text.SPI_TxISR_32BIT)
    SPI_TxISR_8BIT                           0x0801ac09   Thumb Code    64  stm32h7xx_hal_spi.o(.text.SPI_TxISR_8BIT)
    [Anonymous Symbol]                       0x0801ac08   Section        0  stm32h7xx_hal_spi.o(.text.SPI_TxISR_8BIT)
    SPI_WaitOnFlagUntilTimeout               0x0801ac49   Thumb Code   104  stm32h7xx_hal_spi.o(.text.SPI_WaitOnFlagUntilTimeout)
    [Anonymous Symbol]                       0x0801ac48   Section        0  stm32h7xx_hal_spi.o(.text.SPI_WaitOnFlagUntilTimeout)
    [Anonymous Symbol]                       0x0801acb0   Section        0  port.o(.text.SVC_Handler)
    pxCurrentTCBConst2                       0x0801acd0   Number         0  port.o(.text.SVC_Handler)
    SVC_Setup                                0x0801acd9   Thumb Code    14  cmsis_os2.o(.text.SVC_Setup)
    [Anonymous Symbol]                       0x0801acd8   Section        0  cmsis_os2.o(.text.SVC_Setup)
    SWAPBYTE                                 0x0801ace9   Thumb Code    54  usbd_ctlreq.o(.text.SWAPBYTE)
    [Anonymous Symbol]                       0x0801ace8   Section        0  usbd_ctlreq.o(.text.SWAPBYTE)
    [Anonymous Symbol]                       0x0801ad20   Section        0  shoot.o(.text.Shoot_Control_Remote)
    [Anonymous Symbol]                       0x0801ae60   Section        0  shoot.o(.text.Shoot_Enable)
    [Anonymous Symbol]                       0x0801aea0   Section        0  shoot.o(.text.Shoot_Init)
    [Anonymous Symbol]                       0x0801af00   Section        0  shoot_motor.o(.text.Shoot_Motor_Enable)
    [Anonymous Symbol]                       0x0801af10   Section        0  shoot_motor.o(.text.Shoot_Motor_Init)
    Shoot_Motor_Lost_Callback                0x0801afc1   Thumb Code    70  shoot_motor.o(.text.Shoot_Motor_Lost_Callback)
    [Anonymous Symbol]                       0x0801afc0   Section        0  shoot_motor.o(.text.Shoot_Motor_Lost_Callback)
    Shoot_Motor_Receive                      0x0801b009   Thumb Code    28  shoot_motor.o(.text.Shoot_Motor_Receive)
    [Anonymous Symbol]                       0x0801b008   Section        0  shoot_motor.o(.text.Shoot_Motor_Receive)
    [Anonymous Symbol]                       0x0801b028   Section        0  shoot_motor.o(.text.Shoot_Motor_Send)
    Shoot_Motor_Sender_Grouping              0x0801b0f9   Thumb Code    28  shoot_motor.o(.text.Shoot_Motor_Sender_Grouping)
    [Anonymous Symbol]                       0x0801b0f8   Section        0  shoot_motor.o(.text.Shoot_Motor_Sender_Grouping)
    [Anonymous Symbol]                       0x0801b118   Section        0  shoot_motor.o(.text.Shoot_Motor_SetTar)
    [Anonymous Symbol]                       0x0801b130   Section        0  shoot_motor.o(.text.Shoot_Motor_Stop)
    [Anonymous Symbol]                       0x0801b140   Section        0  shoot.o(.text.Shoot_Set_All_Friction)
    [Anonymous Symbol]                       0x0801b180   Section        0  shoot.o(.text.Shoot_Stop)
    Shoot_Task                               0x0801b1c1   Thumb Code    52  shoot_task.o(.text.Shoot_Task)
    [Anonymous Symbol]                       0x0801b1c0   Section        0  shoot_task.o(.text.Shoot_Task)
    [Anonymous Symbol]                       0x0801b1f8   Section        0  shoot_task.o(.text.Shoot_Task_Init)
    [Anonymous Symbol]                       0x0801b280   Section        0  user_lib.o(.text.Sqrt)
    [Anonymous Symbol]                       0x0801b340   Section        0  freertos.o(.text.StartDefaultTask)
    [Anonymous Symbol]                       0x0801b3b0   Section        0  message_center.o(.text.Subscriber_Register)
    [Anonymous Symbol]                       0x0801b448   Section        0  supercap.o(.text.SuperCap_Enable)
    [Anonymous Symbol]                       0x0801b4a8   Section        0  supercap.o(.text.Super_Power_Init)
    [Anonymous Symbol]                       0x0801b4c8   Section        0  defense_center.o(.text.Supervisor_Register)
    [Anonymous Symbol]                       0x0801b528   Section        0  defense_center.o(.text.Supervisor_Reload)
    [Anonymous Symbol]                       0x0801b538   Section        0  cmsis_os2.o(.text.SysTick_Handler)
    [Anonymous Symbol]                       0x0801b558   Section        0  main.o(.text.SystemClock_Config)
    [Anonymous Symbol]                       0x0801b628   Section        0  system_stm32h7xx.o(.text.SystemInit)
    [Anonymous Symbol]                       0x0801b790   Section        0  stm32h7xx_it.o(.text.TIM7_IRQHandler)
    [Anonymous Symbol]                       0x0801b7a0   Section        0  stm32h7xx_hal_tim.o(.text.TIM_Base_SetConfig)
    [Anonymous Symbol]                       0x0801b968   Section        0  stm32h7xx_hal_tim.o(.text.TIM_CCxChannelCmd)
    TIM_OC1_SetConfig                        0x0801b9a1   Thumb Code   336  stm32h7xx_hal_tim.o(.text.TIM_OC1_SetConfig)
    [Anonymous Symbol]                       0x0801b9a0   Section        0  stm32h7xx_hal_tim.o(.text.TIM_OC1_SetConfig)
    [Anonymous Symbol]                       0x0801baf0   Section        0  stm32h7xx_hal_tim.o(.text.TIM_OC2_SetConfig)
    TIM_OC3_SetConfig                        0x0801bc61   Thumb Code   362  stm32h7xx_hal_tim.o(.text.TIM_OC3_SetConfig)
    [Anonymous Symbol]                       0x0801bc60   Section        0  stm32h7xx_hal_tim.o(.text.TIM_OC3_SetConfig)
    TIM_OC4_SetConfig                        0x0801bdd1   Thumb Code   218  stm32h7xx_hal_tim.o(.text.TIM_OC4_SetConfig)
    [Anonymous Symbol]                       0x0801bdd0   Section        0  stm32h7xx_hal_tim.o(.text.TIM_OC4_SetConfig)
    TIM_OC5_SetConfig                        0x0801beb1   Thumb Code   208  stm32h7xx_hal_tim.o(.text.TIM_OC5_SetConfig)
    [Anonymous Symbol]                       0x0801beb0   Section        0  stm32h7xx_hal_tim.o(.text.TIM_OC5_SetConfig)
    TIM_OC6_SetConfig                        0x0801bf81   Thumb Code   210  stm32h7xx_hal_tim.o(.text.TIM_OC6_SetConfig)
    [Anonymous Symbol]                       0x0801bf80   Section        0  stm32h7xx_hal_tim.o(.text.TIM_OC6_SetConfig)
    [Anonymous Symbol]                       0x0801c058   Section        0  stm32h7xx_it.o(.text.UART5_IRQHandler)
    [Anonymous Symbol]                       0x0801c068   Section        0  stm32h7xx_it.o(.text.UART7_IRQHandler)
    UARTEx_SetNbDataToProcess                0x0801c079   Thumb Code   134  stm32h7xx_hal_uart_ex.o(.text.UARTEx_SetNbDataToProcess)
    [Anonymous Symbol]                       0x0801c078   Section        0  stm32h7xx_hal_uart_ex.o(.text.UARTEx_SetNbDataToProcess)
    [Anonymous Symbol]                       0x0801c100   Section        0  stm32h7xx_hal_uart.o(.text.UART_AdvFeatureConfig)
    [Anonymous Symbol]                       0x0801c248   Section        0  stm32h7xx_hal_uart.o(.text.UART_CheckIdleState)
    UART_DMAAbortOnError                     0x0801c391   Thumb Code    30  stm32h7xx_hal_uart.o(.text.UART_DMAAbortOnError)
    [Anonymous Symbol]                       0x0801c390   Section        0  stm32h7xx_hal_uart.o(.text.UART_DMAAbortOnError)
    UART_DMAError                            0x0801c3b1   Thumb Code   128  stm32h7xx_hal_uart.o(.text.UART_DMAError)
    [Anonymous Symbol]                       0x0801c3b0   Section        0  stm32h7xx_hal_uart.o(.text.UART_DMAError)
    UART_DMAReceiveCplt                      0x0801c431   Thumb Code   246  stm32h7xx_hal_uart.o(.text.UART_DMAReceiveCplt)
    [Anonymous Symbol]                       0x0801c430   Section        0  stm32h7xx_hal_uart.o(.text.UART_DMAReceiveCplt)
    UART_DMARxHalfCplt                       0x0801c529   Thumb Code    54  stm32h7xx_hal_uart.o(.text.UART_DMARxHalfCplt)
    [Anonymous Symbol]                       0x0801c528   Section        0  stm32h7xx_hal_uart.o(.text.UART_DMARxHalfCplt)
    UART_DMATransmitCplt                     0x0801c561   Thumb Code   122  stm32h7xx_hal_uart.o(.text.UART_DMATransmitCplt)
    [Anonymous Symbol]                       0x0801c560   Section        0  stm32h7xx_hal_uart.o(.text.UART_DMATransmitCplt)
    UART_DMATxHalfCplt                       0x0801c5e1   Thumb Code    22  stm32h7xx_hal_uart.o(.text.UART_DMATxHalfCplt)
    [Anonymous Symbol]                       0x0801c5e0   Section        0  stm32h7xx_hal_uart.o(.text.UART_DMATxHalfCplt)
    UART_EndRxTransfer                       0x0801c5f9   Thumb Code   158  stm32h7xx_hal_uart.o(.text.UART_EndRxTransfer)
    [Anonymous Symbol]                       0x0801c5f8   Section        0  stm32h7xx_hal_uart.o(.text.UART_EndRxTransfer)
    UART_EndTransmit_IT                      0x0801c699   Thumb Code    68  stm32h7xx_hal_uart.o(.text.UART_EndTransmit_IT)
    [Anonymous Symbol]                       0x0801c698   Section        0  stm32h7xx_hal_uart.o(.text.UART_EndTransmit_IT)
    UART_EndTxTransfer                       0x0801c6e1   Thumb Code    92  stm32h7xx_hal_uart.o(.text.UART_EndTxTransfer)
    [Anonymous Symbol]                       0x0801c6e0   Section        0  stm32h7xx_hal_uart.o(.text.UART_EndTxTransfer)
    [Anonymous Symbol]                       0x0801c740   Section        0  stm32h7xx_hal_uart.o(.text.UART_SetConfig)
    [Anonymous Symbol]                       0x0801d190   Section        0  stm32h7xx_hal_uart.o(.text.UART_Start_Receive_DMA)
    UART_TxISR_16BIT                         0x0801d2c1   Thumb Code   152  stm32h7xx_hal_uart.o(.text.UART_TxISR_16BIT)
    [Anonymous Symbol]                       0x0801d2c0   Section        0  stm32h7xx_hal_uart.o(.text.UART_TxISR_16BIT)
    UART_TxISR_16BIT_FIFOEN                  0x0801d359   Thumb Code   206  stm32h7xx_hal_uart.o(.text.UART_TxISR_16BIT_FIFOEN)
    [Anonymous Symbol]                       0x0801d358   Section        0  stm32h7xx_hal_uart.o(.text.UART_TxISR_16BIT_FIFOEN)
    UART_TxISR_8BIT                          0x0801d429   Thumb Code   142  stm32h7xx_hal_uart.o(.text.UART_TxISR_8BIT)
    [Anonymous Symbol]                       0x0801d428   Section        0  stm32h7xx_hal_uart.o(.text.UART_TxISR_8BIT)
    UART_TxISR_8BIT_FIFOEN                   0x0801d4b9   Thumb Code   196  stm32h7xx_hal_uart.o(.text.UART_TxISR_8BIT_FIFOEN)
    [Anonymous Symbol]                       0x0801d4b8   Section        0  stm32h7xx_hal_uart.o(.text.UART_TxISR_8BIT_FIFOEN)
    [Anonymous Symbol]                       0x0801d580   Section        0  stm32h7xx_hal_uart.o(.text.UART_WaitOnFlagUntilTimeout)
    UI_Task                                  0x0801d691   Thumb Code   402  ui.o(.text.UI_Task)
    [Anonymous Symbol]                       0x0801d690   Section        0  ui.o(.text.UI_Task)
    [Anonymous Symbol]                       0x0801d828   Section        0  ui.o(.text.UI_Task_Init)
    [Anonymous Symbol]                       0x0801d8b0   Section        0  stm32h7xx_it.o(.text.USART10_IRQHandler)
    [Anonymous Symbol]                       0x0801d8c0   Section        0  stm32h7xx_it.o(.text.USART1_IRQHandler)
    [Anonymous Symbol]                       0x0801d8d0   Section        0  stm32h7xx_it.o(.text.USART2_IRQHandler)
    [Anonymous Symbol]                       0x0801d8e0   Section        0  stm32h7xx_it.o(.text.USART3_IRQHandler)
    [Anonymous Symbol]                       0x0801d8f0   Section        0  bsp_usart.o(.text.USART_Register)
    [Anonymous Symbol]                       0x0801d9c0   Section        0  bsp_usart.o(.text.USART_Send)
    [Anonymous Symbol]                       0x0801da30   Section        0  bsp_usart.o(.text.USART_Service_Init)
    USBD_CDC_DataIn                          0x0801dc19   Thumb Code   244  usbd_cdc.o(.text.USBD_CDC_DataIn)
    [Anonymous Symbol]                       0x0801dc18   Section        0  usbd_cdc.o(.text.USBD_CDC_DataIn)
    USBD_CDC_DataOut                         0x0801dd11   Thumb Code   112  usbd_cdc.o(.text.USBD_CDC_DataOut)
    [Anonymous Symbol]                       0x0801dd10   Section        0  usbd_cdc.o(.text.USBD_CDC_DataOut)
    USBD_CDC_DeInit                          0x0801dd81   Thumb Code   236  usbd_cdc.o(.text.USBD_CDC_DeInit)
    [Anonymous Symbol]                       0x0801dd80   Section        0  usbd_cdc.o(.text.USBD_CDC_DeInit)
    USBD_CDC_EP0_RxReady                     0x0801de71   Thumb Code   120  usbd_cdc.o(.text.USBD_CDC_EP0_RxReady)
    [Anonymous Symbol]                       0x0801de70   Section        0  usbd_cdc.o(.text.USBD_CDC_EP0_RxReady)
    [Anonymous Symbol]                       0x0801dee8   Section        0  usbd_cdc.o(.text.USBD_CDC_GetDeviceQualifierDescriptor)
    USBD_CDC_GetFSCfgDesc                    0x0801df01   Thumb Code   108  usbd_cdc.o(.text.USBD_CDC_GetFSCfgDesc)
    [Anonymous Symbol]                       0x0801df00   Section        0  usbd_cdc.o(.text.USBD_CDC_GetFSCfgDesc)
    USBD_CDC_GetHSCfgDesc                    0x0801df71   Thumb Code   112  usbd_cdc.o(.text.USBD_CDC_GetHSCfgDesc)
    [Anonymous Symbol]                       0x0801df70   Section        0  usbd_cdc.o(.text.USBD_CDC_GetHSCfgDesc)
    USBD_CDC_GetOtherSpeedCfgDesc            0x0801dfe1   Thumb Code   108  usbd_cdc.o(.text.USBD_CDC_GetOtherSpeedCfgDesc)
    [Anonymous Symbol]                       0x0801dfe0   Section        0  usbd_cdc.o(.text.USBD_CDC_GetOtherSpeedCfgDesc)
    USBD_CDC_Init                            0x0801e051   Thumb Code   540  usbd_cdc.o(.text.USBD_CDC_Init)
    [Anonymous Symbol]                       0x0801e050   Section        0  usbd_cdc.o(.text.USBD_CDC_Init)
    [Anonymous Symbol]                       0x0801e270   Section        0  usbd_cdc.o(.text.USBD_CDC_ReceivePacket)
    [Anonymous Symbol]                       0x0801e2f0   Section        0  usbd_cdc.o(.text.USBD_CDC_RegisterInterface)
    [Anonymous Symbol]                       0x0801e328   Section        0  usbd_cdc.o(.text.USBD_CDC_SetRxBuffer)
    [Anonymous Symbol]                       0x0801e368   Section        0  usbd_cdc.o(.text.USBD_CDC_SetTxBuffer)
    USBD_CDC_Setup                           0x0801e3b1   Thumb Code   460  usbd_cdc.o(.text.USBD_CDC_Setup)
    [Anonymous Symbol]                       0x0801e3b0   Section        0  usbd_cdc.o(.text.USBD_CDC_Setup)
    [Anonymous Symbol]                       0x0801e580   Section        0  usbd_cdc.o(.text.USBD_CDC_TransmitPacket)
    [Anonymous Symbol]                       0x0801e608   Section        0  usbd_core.o(.text.USBD_ClrClassConfig)
    USBD_ClrFeature                          0x0801e641   Thumb Code    64  usbd_ctlreq.o(.text.USBD_ClrFeature)
    [Anonymous Symbol]                       0x0801e640   Section        0  usbd_ctlreq.o(.text.USBD_ClrFeature)
    [Anonymous Symbol]                       0x0801e680   Section        0  usbd_core.o(.text.USBD_CoreFindEP)
    [Anonymous Symbol]                       0x0801e690   Section        0  usbd_core.o(.text.USBD_CoreFindIF)
    [Anonymous Symbol]                       0x0801e6a0   Section        0  usbd_ioreq.o(.text.USBD_CtlContinueRx)
    [Anonymous Symbol]                       0x0801e6c0   Section        0  usbd_ioreq.o(.text.USBD_CtlContinueSendData)
    [Anonymous Symbol]                       0x0801e6e0   Section        0  usbd_ctlreq.o(.text.USBD_CtlError)
    [Anonymous Symbol]                       0x0801e700   Section        0  usbd_ioreq.o(.text.USBD_CtlPrepareRx)
    [Anonymous Symbol]                       0x0801e738   Section        0  usbd_ioreq.o(.text.USBD_CtlReceiveStatus)
    [Anonymous Symbol]                       0x0801e760   Section        0  usbd_ioreq.o(.text.USBD_CtlSendData)
    [Anonymous Symbol]                       0x0801e798   Section        0  usbd_ioreq.o(.text.USBD_CtlSendStatus)
    USBD_GetConfig                           0x0801e7c1   Thumb Code   100  usbd_ctlreq.o(.text.USBD_GetConfig)
    [Anonymous Symbol]                       0x0801e7c0   Section        0  usbd_ctlreq.o(.text.USBD_GetConfig)
    USBD_GetDescriptor                       0x0801e829   Thumb Code   798  usbd_ctlreq.o(.text.USBD_GetDescriptor)
    [Anonymous Symbol]                       0x0801e828   Section        0  usbd_ctlreq.o(.text.USBD_GetDescriptor)
    [Anonymous Symbol]                       0x0801eb48   Section        0  usbd_core.o(.text.USBD_GetEpDesc)
    USBD_GetLen                              0x0801ebc1   Thumb Code    50  usbd_ctlreq.o(.text.USBD_GetLen)
    [Anonymous Symbol]                       0x0801ebc0   Section        0  usbd_ctlreq.o(.text.USBD_GetLen)
    [Anonymous Symbol]                       0x0801ebf8   Section        0  usbd_core.o(.text.USBD_GetNextDesc)
    USBD_GetStatus                           0x0801ec21   Thumb Code    98  usbd_ctlreq.o(.text.USBD_GetStatus)
    [Anonymous Symbol]                       0x0801ec20   Section        0  usbd_ctlreq.o(.text.USBD_GetStatus)
    [Anonymous Symbol]                       0x0801ec88   Section        0  usbd_ctlreq.o(.text.USBD_GetString)
    [Anonymous Symbol]                       0x0801ed48   Section        0  usbd_conf.o(.text.USBD_Get_USB_Status)
    [Anonymous Symbol]                       0x0801eda0   Section        0  usbd_desc.o(.text.USBD_HS_ConfigStrDescriptor)
    [Anonymous Symbol]                       0x0801edf0   Section        0  usbd_desc.o(.text.USBD_HS_DeviceDescriptor)
    [Anonymous Symbol]                       0x0801ee10   Section        0  usbd_desc.o(.text.USBD_HS_InterfaceStrDescriptor)
    [Anonymous Symbol]                       0x0801ee60   Section        0  usbd_desc.o(.text.USBD_HS_LangIDStrDescriptor)
    [Anonymous Symbol]                       0x0801ee80   Section        0  usbd_desc.o(.text.USBD_HS_ManufacturerStrDescriptor)
    [Anonymous Symbol]                       0x0801eea8   Section        0  usbd_desc.o(.text.USBD_HS_ProductStrDescriptor)
    [Anonymous Symbol]                       0x0801eef8   Section        0  usbd_desc.o(.text.USBD_HS_SerialStrDescriptor)
    [Anonymous Symbol]                       0x0801ef18   Section        0  usbd_core.o(.text.USBD_Init)
    [Anonymous Symbol]                       0x0801ef88   Section        0  usbd_conf.o(.text.USBD_LL_ClearStallEP)
    [Anonymous Symbol]                       0x0801efc8   Section        0  usbd_conf.o(.text.USBD_LL_CloseEP)
    [Anonymous Symbol]                       0x0801f008   Section        0  usbd_core.o(.text.USBD_LL_DataInStage)
    [Anonymous Symbol]                       0x0801f198   Section        0  usbd_core.o(.text.USBD_LL_DataOutStage)
    [Anonymous Symbol]                       0x0801f350   Section        0  usbd_core.o(.text.USBD_LL_DevConnected)
    [Anonymous Symbol]                       0x0801f360   Section        0  usbd_core.o(.text.USBD_LL_DevDisconnected)
    [Anonymous Symbol]                       0x0801f3a0   Section        0  usbd_conf.o(.text.USBD_LL_GetRxDataSize)
    [Anonymous Symbol]                       0x0801f3c0   Section        0  usbd_conf.o(.text.USBD_LL_Init)
    [Anonymous Symbol]                       0x0801f448   Section        0  usbd_conf.o(.text.USBD_LL_IsStallEP)
    [Anonymous Symbol]                       0x0801f4a8   Section        0  usbd_core.o(.text.USBD_LL_IsoINIncomplete)
    [Anonymous Symbol]                       0x0801f518   Section        0  usbd_core.o(.text.USBD_LL_IsoOUTIncomplete)
    [Anonymous Symbol]                       0x0801f588   Section        0  usbd_conf.o(.text.USBD_LL_OpenEP)
    [Anonymous Symbol]                       0x0801f5d8   Section        0  usbd_conf.o(.text.USBD_LL_PrepareReceive)
    [Anonymous Symbol]                       0x0801f620   Section        0  usbd_core.o(.text.USBD_LL_Reset)
    [Anonymous Symbol]                       0x0801f6c0   Section        0  usbd_core.o(.text.USBD_LL_Resume)
    [Anonymous Symbol]                       0x0801f6e8   Section        0  usbd_core.o(.text.USBD_LL_SOF)
    [Anonymous Symbol]                       0x0801f728   Section        0  usbd_core.o(.text.USBD_LL_SetSpeed)
    [Anonymous Symbol]                       0x0801f740   Section        0  usbd_conf.o(.text.USBD_LL_SetUSBAddress)
    [Anonymous Symbol]                       0x0801f780   Section        0  usbd_core.o(.text.USBD_LL_SetupStage)
    [Anonymous Symbol]                       0x0801f818   Section        0  usbd_conf.o(.text.USBD_LL_StallEP)
    [Anonymous Symbol]                       0x0801f858   Section        0  usbd_conf.o(.text.USBD_LL_Start)
    [Anonymous Symbol]                       0x0801f890   Section        0  usbd_core.o(.text.USBD_LL_Suspend)
    [Anonymous Symbol]                       0x0801f8c0   Section        0  usbd_conf.o(.text.USBD_LL_Transmit)
    [Anonymous Symbol]                       0x0801f908   Section        0  usbd_ctlreq.o(.text.USBD_ParseSetupRequest)
    [Anonymous Symbol]                       0x0801f970   Section        0  usbd_core.o(.text.USBD_RegisterClass)
    [Anonymous Symbol]                       0x0801f9e8   Section        0  usbd_core.o(.text.USBD_RunTestMode)
    USBD_SetAddress                          0x0801f9f9   Thumb Code   140  usbd_ctlreq.o(.text.USBD_SetAddress)
    [Anonymous Symbol]                       0x0801f9f8   Section        0  usbd_ctlreq.o(.text.USBD_SetAddress)
    [Anonymous Symbol]                       0x0801fa88   Section        0  usbd_core.o(.text.USBD_SetClassConfig)
    USBD_SetConfig                           0x0801fac1   Thumb Code   382  usbd_ctlreq.o(.text.USBD_SetConfig)
    [Anonymous Symbol]                       0x0801fac0   Section        0  usbd_ctlreq.o(.text.USBD_SetConfig)
    USBD_SetFeature                          0x0801fc41   Thumb Code    78  usbd_ctlreq.o(.text.USBD_SetFeature)
    [Anonymous Symbol]                       0x0801fc40   Section        0  usbd_ctlreq.o(.text.USBD_SetFeature)
    [Anonymous Symbol]                       0x0801fc90   Section        0  usbd_core.o(.text.USBD_Start)
    [Anonymous Symbol]                       0x0801fca0   Section        0  usbd_ctlreq.o(.text.USBD_StdDevReq)
    [Anonymous Symbol]                       0x0801fd70   Section        0  usbd_ctlreq.o(.text.USBD_StdEPReq)
    [Anonymous Symbol]                       0x08020120   Section        0  usbd_ctlreq.o(.text.USBD_StdItfReq)
    [Anonymous Symbol]                       0x08020218   Section        0  usbd_conf.o(.text.USBD_static_free)
    [Anonymous Symbol]                       0x08020220   Section        0  usbd_conf.o(.text.USBD_static_malloc)
    [Anonymous Symbol]                       0x08020230   Section        0  stm32h7xx_ll_usb.o(.text.USB_ActivateEndpoint)
    [Anonymous Symbol]                       0x08020310   Section        0  stm32h7xx_ll_usb.o(.text.USB_ActivateSetup)
    [Anonymous Symbol]                       0x08020340   Section        0  stm32h7xx_ll_usb.o(.text.USB_CoreInit)
    USB_CoreReset                            0x08020431   Thumb Code   118  stm32h7xx_ll_usb.o(.text.USB_CoreReset)
    [Anonymous Symbol]                       0x08020430   Section        0  stm32h7xx_ll_usb.o(.text.USB_CoreReset)
    [Anonymous Symbol]                       0x080204a8   Section        0  stm32h7xx_ll_usb.o(.text.USB_DeactivateEndpoint)
    [Anonymous Symbol]                       0x080205e0   Section        0  stm32h7xx_ll_usb.o(.text.USB_DevConnect)
    [Anonymous Symbol]                       0x08020610   Section        0  stm32h7xx_ll_usb.o(.text.USB_DevDisconnect)
    [Anonymous Symbol]                       0x08020640   Section        0  stm32h7xx_ll_usb.o(.text.USB_DevInit)
    [Anonymous Symbol]                       0x080208d0   Section        0  stm32h7xx_ll_usb.o(.text.USB_DisableGlobalInt)
    [Anonymous Symbol]                       0x080208e8   Section        0  stm32h7xx_ll_usb.o(.text.USB_EP0_OutStart)
    [Anonymous Symbol]                       0x08020988   Section        0  stm32h7xx_ll_usb.o(.text.USB_EPClearStall)
    [Anonymous Symbol]                       0x08020a28   Section        0  stm32h7xx_ll_usb.o(.text.USB_EPSetStall)
    [Anonymous Symbol]                       0x08020ad0   Section        0  stm32h7xx_ll_usb.o(.text.USB_EPStartXfer)
    [Anonymous Symbol]                       0x08020ec8   Section        0  stm32h7xx_ll_usb.o(.text.USB_EPStopXfer)
    [Anonymous Symbol]                       0x08020fe8   Section        0  stm32h7xx_ll_usb.o(.text.USB_EnableGlobalInt)
    [Anonymous Symbol]                       0x08021000   Section        0  stm32h7xx_ll_usb.o(.text.USB_FlushRxFifo)
    [Anonymous Symbol]                       0x08021078   Section        0  stm32h7xx_ll_usb.o(.text.USB_FlushTxFifo)
    [Anonymous Symbol]                       0x080210f8   Section        0  stm32h7xx_ll_usb.o(.text.USB_GetDevSpeed)
    [Anonymous Symbol]                       0x08021148   Section        0  stm32h7xx_ll_usb.o(.text.USB_GetMode)
    [Anonymous Symbol]                       0x08021158   Section        0  stm32h7xx_ll_usb.o(.text.USB_ReadDevAllInEpInterrupt)
    [Anonymous Symbol]                       0x08021180   Section        0  stm32h7xx_ll_usb.o(.text.USB_ReadDevAllOutEpInterrupt)
    [Anonymous Symbol]                       0x080211a8   Section        0  stm32h7xx_ll_usb.o(.text.USB_ReadDevInEPInterrupt)
    [Anonymous Symbol]                       0x080211f8   Section        0  stm32h7xx_ll_usb.o(.text.USB_ReadDevOutEPInterrupt)
    [Anonymous Symbol]                       0x08021228   Section        0  stm32h7xx_ll_usb.o(.text.USB_ReadInterrupts)
    [Anonymous Symbol]                       0x08021248   Section        0  stm32h7xx_ll_usb.o(.text.USB_ReadPacket)
    [Anonymous Symbol]                       0x08021300   Section        0  stm32h7xx_ll_usb.o(.text.USB_SetCurrentMode)
    [Anonymous Symbol]                       0x080213e0   Section        0  stm32h7xx_ll_usb.o(.text.USB_SetDevAddress)
    [Anonymous Symbol]                       0x08021418   Section        0  stm32h7xx_ll_usb.o(.text.USB_SetDevSpeed)
    [Anonymous Symbol]                       0x08021440   Section        0  stm32h7xx_ll_usb.o(.text.USB_SetTurnaroundTime)
    [Anonymous Symbol]                       0x08021600   Section        0  stm32h7xx_ll_usb.o(.text.USB_WritePacket)
    [Anonymous Symbol]                       0x08021688   Section        0  stm32h7xx_it.o(.text.UsageFault_Handler)
    [Anonymous Symbol]                       0x08021690   Section        0  procotol.o(.text.VOFA_Display_2006_Current)
    [Anonymous Symbol]                       0x080216c0   Section        0  vofa.o(.text.VOFA_JustFloat)
    [Anonymous Symbol]                       0x08021758   Section        0  vofa.o(.text.VOFA_Register)
    [Anonymous Symbol]                       0x08021780   Section        0  vofa.o(.text.VOFA_Transmit)
    [Anonymous Symbol]                       0x080217b0   Section        0  vpc.o(.text.VPC_UpdatePackets)
    [Anonymous Symbol]                       0x08021830   Section        0  serial.o(.text.VS_Pack_And_Send_Data_ROS2)
    [Anonymous Symbol]                       0x080218c0   Section        0  serial.o(.text.VS_UnPack_Data_ROS2)
    [Anonymous Symbol]                       0x08021940   Section        0  pid.o(.text.Value_Limit)
    [Anonymous Symbol]                       0x08021990   Section        0  crc.o(.text.Verify_CRC16_Check_Sum)
    [Anonymous Symbol]                       0x08021a10   Section        0  crc.o(.text.Verify_CRC8_Check_Sum)
    [Anonymous Symbol]                       0x08021a68   Section        0  ws2812.o(.text.WS2812_Control)
    [Anonymous Symbol]                       0x08021af0   Section        0  ws2812.o(.text.WS2812_Register)
    __NVIC_DisableIRQ                        0x08021b41   Thumb Code    56  stm32h7xx_hal_cortex.o(.text.__NVIC_DisableIRQ)
    [Anonymous Symbol]                       0x08021b40   Section        0  stm32h7xx_hal_cortex.o(.text.__NVIC_DisableIRQ)
    __NVIC_EnableIRQ                         0x08021b79   Thumb Code    48  stm32h7xx_hal_cortex.o(.text.__NVIC_EnableIRQ)
    [Anonymous Symbol]                       0x08021b78   Section        0  stm32h7xx_hal_cortex.o(.text.__NVIC_EnableIRQ)
    __NVIC_GetPriorityGrouping               0x08021ba9   Thumb Code    16  stm32h7xx_hal_cortex.o(.text.__NVIC_GetPriorityGrouping)
    [Anonymous Symbol]                       0x08021ba8   Section        0  stm32h7xx_hal_cortex.o(.text.__NVIC_GetPriorityGrouping)
    __NVIC_SetPriority                       0x08021bb9   Thumb Code    66  stm32h7xx_hal_cortex.o(.text.__NVIC_SetPriority)
    [Anonymous Symbol]                       0x08021bb8   Section        0  stm32h7xx_hal_cortex.o(.text.__NVIC_SetPriority)
    __NVIC_SetPriority                       0x08021c01   Thumb Code    66  cmsis_os2.o(.text.__NVIC_SetPriority)
    [Anonymous Symbol]                       0x08021c00   Section        0  cmsis_os2.o(.text.__NVIC_SetPriority)
    __NVIC_SetPriorityGrouping               0x08021c49   Thumb Code    60  stm32h7xx_hal_cortex.o(.text.__NVIC_SetPriorityGrouping)
    [Anonymous Symbol]                       0x08021c48   Section        0  stm32h7xx_hal_cortex.o(.text.__NVIC_SetPriorityGrouping)
    [Anonymous Symbol]                       0x08021c88   Section        0  ui_infantry_group1_0.o(.text._ui_init_Infantry_group1_0)
    [Anonymous Symbol]                       0x08021d50   Section        0  ui_infantry_group1_1.o(.text._ui_init_Infantry_group1_1)
    [Anonymous Symbol]                       0x08021e18   Section        0  ui_infantry_group1_2.o(.text._ui_init_Infantry_group1_2)
    [Anonymous Symbol]                       0x08021ef0   Section        0  ui_infantry_group1_3.o(.text._ui_init_Infantry_group1_3)
    [Anonymous Symbol]                       0x080226f8   Section        0  ui_infantry_group1_4.o(.text._ui_init_Infantry_group1_4)
    [Anonymous Symbol]                       0x08022b28   Section        0  ui_infantry_group1_5.o(.text._ui_init_Infantry_group1_5)
    [Anonymous Symbol]                       0x08022cb0   Section        0  ui_infantry_group2_0.o(.text._ui_init_Infantry_group2_0)
    [Anonymous Symbol]                       0x08023360   Section        0  ui_infantry_group1_0.o(.text._ui_remove_Infantry_group1_0)
    [Anonymous Symbol]                       0x080233a0   Section        0  ui_infantry_group1_1.o(.text._ui_remove_Infantry_group1_1)
    [Anonymous Symbol]                       0x080233e0   Section        0  ui_infantry_group1_2.o(.text._ui_remove_Infantry_group1_2)
    [Anonymous Symbol]                       0x08023420   Section        0  ui_infantry_group1_3.o(.text._ui_remove_Infantry_group1_3)
    [Anonymous Symbol]                       0x08023488   Section        0  ui_infantry_group1_4.o(.text._ui_remove_Infantry_group1_4)
    [Anonymous Symbol]                       0x080234f0   Section        0  ui_infantry_group1_5.o(.text._ui_remove_Infantry_group1_5)
    [Anonymous Symbol]                       0x08023530   Section        0  ui_infantry_group2_0.o(.text._ui_remove_Infantry_group2_0)
    [Anonymous Symbol]                       0x08023598   Section        0  ui_infantry_group2_0.o(.text._ui_update_Infantry_group2_0)
    [Anonymous Symbol]                       0x08023600   Section        0  arm_mat_add_f32.o(.text.arm_mat_add_f32)
    [Anonymous Symbol]                       0x080236be   Section        0  arm_mat_init_f32.o(.text.arm_mat_init_f32)
    [Anonymous Symbol]                       0x080236c8   Section        0  arm_mat_inverse_f32.o(.text.arm_mat_inverse_f32)
    [Anonymous Symbol]                       0x08023994   Section        0  arm_mat_mult_f32.o(.text.arm_mat_mult_f32)
    [Anonymous Symbol]                       0x08023ac4   Section        0  arm_mat_sub_f32.o(.text.arm_mat_sub_f32)
    [Anonymous Symbol]                       0x08023b84   Section        0  arm_mat_trans_f32.o(.text.arm_mat_trans_f32)
    [Anonymous Symbol]                       0x08023c38   Section        0  ui_interface.o(.text.calc_crc16)
    [Anonymous Symbol]                       0x08023ca8   Section        0  ui_interface.o(.text.calc_crc8)
    [Anonymous Symbol]                       0x08023cf0   Section        0  powerctrl.o(.text.chassis_power_control)
    __arm_cp.0_11                            0x080240fc   Number         4  powerctrl.o(.text.chassis_power_control)
    [Anonymous Symbol]                       0x08024530   Section        0  dm_motor.o(.text.float_to_uint)
    invSqrt                                  0x08024589   Thumb Code    86  quaternionekf.o(.text.invSqrt)
    [Anonymous Symbol]                       0x08024588   Section        0  quaternionekf.o(.text.invSqrt)
    [Anonymous Symbol]                       0x080245e0   Section        0  main.o(.text.main)
    next_char                                0x08024651   Thumb Code    94  buzzer.o(.text.next_char)
    [Anonymous Symbol]                       0x08024650   Section        0  buzzer.o(.text.next_char)
    next_dots                                0x080246b1   Thumb Code    50  buzzer.o(.text.next_dots)
    [Anonymous Symbol]                       0x080246b0   Section        0  buzzer.o(.text.next_dots)
    next_number                              0x080246e9   Thumb Code    88  buzzer.o(.text.next_number)
    [Anonymous Symbol]                       0x080246e8   Section        0  buzzer.o(.text.next_number)
    [Anonymous Symbol]                       0x08024740   Section        0  cmsis_os2.o(.text.osDelay)
    [Anonymous Symbol]                       0x08024778   Section        0  cmsis_os2.o(.text.osDelayUntil)
    [Anonymous Symbol]                       0x080247d0   Section        0  cmsis_os2.o(.text.osKernelGetTickCount)
    [Anonymous Symbol]                       0x080247f8   Section        0  cmsis_os2.o(.text.osKernelInitialize)
    [Anonymous Symbol]                       0x08024840   Section        0  cmsis_os2.o(.text.osKernelStart)
    [Anonymous Symbol]                       0x08024898   Section        0  cmsis_os2.o(.text.osThreadFlagsSet)
    [Anonymous Symbol]                       0x08024940   Section        0  cmsis_os2.o(.text.osThreadNew)
    [Anonymous Symbol]                       0x08024aa0   Section        0  cmsis_os2.o(.text.osThreadResume)
    [Anonymous Symbol]                       0x08024ae0   Section        0  cmsis_os2.o(.text.osThreadSuspend)
    prvAddCurrentTaskToDelayedList           0x08024b21   Thumb Code   212  tasks.o(.text.prvAddCurrentTaskToDelayedList)
    [Anonymous Symbol]                       0x08024b20   Section        0  tasks.o(.text.prvAddCurrentTaskToDelayedList)
    prvAddNewTaskToReadyList                 0x08024bf9   Thumb Code   290  tasks.o(.text.prvAddNewTaskToReadyList)
    [Anonymous Symbol]                       0x08024bf8   Section        0  tasks.o(.text.prvAddNewTaskToReadyList)
    prvCheckForValidListAndQueue             0x08024d21   Thumb Code   162  timers.o(.text.prvCheckForValidListAndQueue)
    [Anonymous Symbol]                       0x08024d20   Section        0  timers.o(.text.prvCheckForValidListAndQueue)
    prvCheckTasksWaitingTermination          0x08024dc9   Thumb Code    90  tasks.o(.text.prvCheckTasksWaitingTermination)
    [Anonymous Symbol]                       0x08024dc8   Section        0  tasks.o(.text.prvCheckTasksWaitingTermination)
    prvCopyDataFromQueue                     0x08024e29   Thumb Code    66  queue.o(.text.prvCopyDataFromQueue)
    [Anonymous Symbol]                       0x08024e28   Section        0  queue.o(.text.prvCopyDataFromQueue)
    prvCopyDataToQueue                       0x08024e71   Thumb Code   204  queue.o(.text.prvCopyDataToQueue)
    [Anonymous Symbol]                       0x08024e70   Section        0  queue.o(.text.prvCopyDataToQueue)
    prvDeleteTCB                             0x08024f41   Thumb Code    94  tasks.o(.text.prvDeleteTCB)
    [Anonymous Symbol]                       0x08024f40   Section        0  tasks.o(.text.prvDeleteTCB)
    prvGetNextExpireTime                     0x08024fa1   Thumb Code    64  timers.o(.text.prvGetNextExpireTime)
    [Anonymous Symbol]                       0x08024fa0   Section        0  timers.o(.text.prvGetNextExpireTime)
    prvHeapInit                              0x08024fe1   Thumb Code   188  heap_4.o(.text.prvHeapInit)
    [Anonymous Symbol]                       0x08024fe0   Section        0  heap_4.o(.text.prvHeapInit)
    prvIdleTask                              0x080250a1   Thumb Code    56  tasks.o(.text.prvIdleTask)
    [Anonymous Symbol]                       0x080250a0   Section        0  tasks.o(.text.prvIdleTask)
    prvInitialiseNewQueue                    0x080250d9   Thumb Code    72  queue.o(.text.prvInitialiseNewQueue)
    [Anonymous Symbol]                       0x080250d8   Section        0  queue.o(.text.prvInitialiseNewQueue)
    prvInitialiseNewTask                     0x08025121   Thumb Code   290  tasks.o(.text.prvInitialiseNewTask)
    [Anonymous Symbol]                       0x08025120   Section        0  tasks.o(.text.prvInitialiseNewTask)
    prvInitialiseTaskLists                   0x08025249   Thumb Code   142  tasks.o(.text.prvInitialiseTaskLists)
    [Anonymous Symbol]                       0x08025248   Section        0  tasks.o(.text.prvInitialiseTaskLists)
    prvInsertBlockIntoFreeList               0x080252d9   Thumb Code   198  heap_4.o(.text.prvInsertBlockIntoFreeList)
    [Anonymous Symbol]                       0x080252d8   Section        0  heap_4.o(.text.prvInsertBlockIntoFreeList)
    prvInsertTimerInActiveList               0x080253a1   Thumb Code   134  timers.o(.text.prvInsertTimerInActiveList)
    [Anonymous Symbol]                       0x080253a0   Section        0  timers.o(.text.prvInsertTimerInActiveList)
    prvIsQueueEmpty                          0x08025429   Thumb Code    40  queue.o(.text.prvIsQueueEmpty)
    [Anonymous Symbol]                       0x08025428   Section        0  queue.o(.text.prvIsQueueEmpty)
    prvIsQueueFull                           0x08025451   Thumb Code    46  queue.o(.text.prvIsQueueFull)
    [Anonymous Symbol]                       0x08025450   Section        0  queue.o(.text.prvIsQueueFull)
    prvPortStartFirstTask                    0x08025481   Thumb Code    34  port.o(.text.prvPortStartFirstTask)
    [Anonymous Symbol]                       0x08025480   Section        0  port.o(.text.prvPortStartFirstTask)
    prvProcessExpiredTimer                   0x080254a9   Thumb Code   142  timers.o(.text.prvProcessExpiredTimer)
    [Anonymous Symbol]                       0x080254a8   Section        0  timers.o(.text.prvProcessExpiredTimer)
    prvProcessReceivedCommands               0x08025539   Thumb Code   402  timers.o(.text.prvProcessReceivedCommands)
    [Anonymous Symbol]                       0x08025538   Section        0  timers.o(.text.prvProcessReceivedCommands)
    prvProcessTimerOrBlockTask               0x080256d1   Thumb Code   154  timers.o(.text.prvProcessTimerOrBlockTask)
    [Anonymous Symbol]                       0x080256d0   Section        0  timers.o(.text.prvProcessTimerOrBlockTask)
    prvResetNextTaskUnblockTime              0x08025771   Thumb Code    70  tasks.o(.text.prvResetNextTaskUnblockTime)
    [Anonymous Symbol]                       0x08025770   Section        0  tasks.o(.text.prvResetNextTaskUnblockTime)
    prvSampleTimeNow                         0x080257b9   Thumb Code    68  timers.o(.text.prvSampleTimeNow)
    [Anonymous Symbol]                       0x080257b8   Section        0  timers.o(.text.prvSampleTimeNow)
    prvSwitchTimerLists                      0x08025801   Thumb Code   212  timers.o(.text.prvSwitchTimerLists)
    [Anonymous Symbol]                       0x08025800   Section        0  timers.o(.text.prvSwitchTimerLists)
    prvTaskCheckFreeStackSpace               0x080258d9   Thumb Code    48  tasks.o(.text.prvTaskCheckFreeStackSpace)
    [Anonymous Symbol]                       0x080258d8   Section        0  tasks.o(.text.prvTaskCheckFreeStackSpace)
    prvTaskExitError                         0x08025909   Thumb Code    76  port.o(.text.prvTaskExitError)
    [Anonymous Symbol]                       0x08025908   Section        0  port.o(.text.prvTaskExitError)
    prvTaskIsTaskSuspended                   0x08025959   Thumb Code   106  tasks.o(.text.prvTaskIsTaskSuspended)
    [Anonymous Symbol]                       0x08025958   Section        0  tasks.o(.text.prvTaskIsTaskSuspended)
    prvTimerTask                             0x080259c9   Thumb Code    30  timers.o(.text.prvTimerTask)
    [Anonymous Symbol]                       0x080259c8   Section        0  timers.o(.text.prvTimerTask)
    prvUnlockQueue                           0x080259e9   Thumb Code   174  queue.o(.text.prvUnlockQueue)
    [Anonymous Symbol]                       0x080259e8   Section        0  queue.o(.text.prvUnlockQueue)
    [Anonymous Symbol]                       0x08025a98   Section        0  heap_4.o(.text.pvPortMalloc)
    [Anonymous Symbol]                       0x08025c88   Section        0  port.o(.text.pxPortInitialiseStack)
    sbus_to_rc                               0x08025ce9   Thumb Code   612  remote_control.o(.text.sbus_to_rc)
    [Anonymous Symbol]                       0x08025ce8   Section        0  remote_control.o(.text.sbus_to_rc)
    string_handle                            0x08025f51   Thumb Code   434  buzzer.o(.text.string_handle)
    [Anonymous Symbol]                       0x08025f50   Section        0  buzzer.o(.text.string_handle)
    [Anonymous Symbol]                       0x08026108   Section        0  ui.o(.text.ui_init)
    [Anonymous Symbol]                       0x08026158   Section        0  ui_interface.o(.text.ui_proc_5_frame)
    [Anonymous Symbol]                       0x080261d0   Section        0  ui_interface.o(.text.ui_proc_6_frame)
    [Anonymous Symbol]                       0x08026248   Section        0  ui_interface.o(.text.ui_proc_7_frame)
    [Anonymous Symbol]                       0x080262c0   Section        0  ui_interface.o(.text.ui_proc_string_frame)
    [Anonymous Symbol]                       0x08026358   Section        0  ui.o(.text.ui_reinit)
    [Anonymous Symbol]                       0x080263f0   Section        0  dm_motor.o(.text.uint_to_float)
    [Anonymous Symbol]                       0x08026448   Section        0  ui.o(.text.update_shooter_ui)
    [Anonymous Symbol]                       0x080266d0   Section        0  list.o(.text.uxListRemove)
    [Anonymous Symbol]                       0x08026718   Section        0  tasks.o(.text.uxTaskGetStackHighWaterMark)
    [Anonymous Symbol]                       0x08026750   Section        0  cmsis_os2.o(.text.vApplicationGetIdleTaskMemory)
    [Anonymous Symbol]                       0x08026780   Section        0  cmsis_os2.o(.text.vApplicationGetTimerTaskMemory)
    [Anonymous Symbol]                       0x080267b0   Section        0  list.o(.text.vListInitialise)
    [Anonymous Symbol]                       0x080267e0   Section        0  list.o(.text.vListInitialiseItem)
    [Anonymous Symbol]                       0x080267f0   Section        0  list.o(.text.vListInsert)
    [Anonymous Symbol]                       0x08026860   Section        0  list.o(.text.vListInsertEnd)
    vPortEnableVFP                           0x080268a1   Thumb Code    14  port.o(.text.vPortEnableVFP)
    [Anonymous Symbol]                       0x080268a0   Section        0  port.o(.text.vPortEnableVFP)
    [Anonymous Symbol]                       0x080268b8   Section        0  port.o(.text.vPortEnterCritical)
    [Anonymous Symbol]                       0x08026910   Section        0  port.o(.text.vPortExitCritical)
    [Anonymous Symbol]                       0x08026960   Section        0  heap_4.o(.text.vPortFree)
    [Anonymous Symbol]                       0x08026a30   Section        0  port.o(.text.vPortSetupTimerInterrupt)
    [Anonymous Symbol]                       0x08026a78   Section        0  port.o(.text.vPortValidateInterruptPriority)
    [Anonymous Symbol]                       0x08026b00   Section        0  queue.o(.text.vQueueAddToRegistry)
    [Anonymous Symbol]                       0x08026b58   Section        0  queue.o(.text.vQueueWaitForMessageRestricted)
    [Anonymous Symbol]                       0x08026bc0   Section        0  tasks.o(.text.vTaskDelay)
    [Anonymous Symbol]                       0x08026c30   Section        0  tasks.o(.text.vTaskDelayUntil)
    [Anonymous Symbol]                       0x08026d48   Section        0  tasks.o(.text.vTaskInternalSetTimeOutState)
    [Anonymous Symbol]                       0x08026d70   Section        0  tasks.o(.text.vTaskMissedYield)
    [Anonymous Symbol]                       0x08026d80   Section        0  tasks.o(.text.vTaskPlaceOnEventList)
    [Anonymous Symbol]                       0x08026dc8   Section        0  tasks.o(.text.vTaskPlaceOnEventListRestricted)
    [Anonymous Symbol]                       0x08026e20   Section        0  tasks.o(.text.vTaskResume)
    [Anonymous Symbol]                       0x08026ef8   Section        0  tasks.o(.text.vTaskStartScheduler)
    [Anonymous Symbol]                       0x08026fd8   Section        0  tasks.o(.text.vTaskSuspend)
    [Anonymous Symbol]                       0x08027100   Section        0  tasks.o(.text.vTaskSuspendAll)
    [Anonymous Symbol]                       0x08027110   Section        0  tasks.o(.text.vTaskSwitchContext)
    [Anonymous Symbol]                       0x080271d8   Section        0  port.o(.text.xPortStartScheduler)
    [Anonymous Symbol]                       0x08027330   Section        0  port.o(.text.xPortSysTickHandler)
    [Anonymous Symbol]                       0x08027370   Section        0  queue.o(.text.xQueueGenericCreateStatic)
    [Anonymous Symbol]                       0x08027480   Section        0  queue.o(.text.xQueueGenericReset)
    [Anonymous Symbol]                       0x08027540   Section        0  queue.o(.text.xQueueGenericSend)
    [Anonymous Symbol]                       0x08027770   Section        0  queue.o(.text.xQueueGenericSendFromISR)
    [Anonymous Symbol]                       0x080278c0   Section        0  queue.o(.text.xQueueReceive)
    [Anonymous Symbol]                       0x08027aa0   Section        0  tasks.o(.text.xTaskCheckForTimeOut)
    [Anonymous Symbol]                       0x08027b70   Section        0  tasks.o(.text.xTaskCreate)
    [Anonymous Symbol]                       0x08027c10   Section        0  tasks.o(.text.xTaskCreateStatic)
    [Anonymous Symbol]                       0x08027ce0   Section        0  tasks.o(.text.xTaskGenericNotify)
    [Anonymous Symbol]                       0x08027e58   Section        0  tasks.o(.text.xTaskGenericNotifyFromISR)
    [Anonymous Symbol]                       0x08028020   Section        0  tasks.o(.text.xTaskGetSchedulerState)
    [Anonymous Symbol]                       0x08028058   Section        0  tasks.o(.text.xTaskGetTickCount)
    [Anonymous Symbol]                       0x08028070   Section        0  tasks.o(.text.xTaskGetTickCountFromISR)
    [Anonymous Symbol]                       0x08028090   Section        0  tasks.o(.text.xTaskIncrementTick)
    [Anonymous Symbol]                       0x08028258   Section        0  tasks.o(.text.xTaskPriorityDisinherit)
    [Anonymous Symbol]                       0x08028348   Section        0  tasks.o(.text.xTaskRemoveFromEventList)
    [Anonymous Symbol]                       0x08028418   Section        0  tasks.o(.text.xTaskResumeAll)
    [Anonymous Symbol]                       0x080285a0   Section        0  timers.o(.text.xTimerCreateTimerTask)
    [Anonymous Symbol]                       0x08028638   Section        0  timers.o(.text.xTimerGenericCommand)
    i.__ARM_fpclassify                       0x080286e8   Section        0  fpclassify.o(i.__ARM_fpclassify)
    i.__ARM_fpclassifyf                      0x08028718   Section        0  fpclassifyf.o(i.__ARM_fpclassifyf)
    i.__hardfp_acosf                         0x08028740   Section        0  acosf.o(i.__hardfp_acosf)
    i.__hardfp_asinf                         0x08028858   Section        0  asinf.o(i.__hardfp_asinf)
    i.__hardfp_atan2f                        0x08028984   Section        0  atan2f.o(i.__hardfp_atan2f)
    i.__hardfp_cos                           0x08028c30   Section        0  cos.o(i.__hardfp_cos)
    i.__hardfp_cosf                          0x08028ce0   Section        0  cosf.o(i.__hardfp_cosf)
    i.__hardfp_sin                           0x08028e30   Section        0  sin.o(i.__hardfp_sin)
    i.__hardfp_sinf                          0x08028ee0   Section        0  sinf.o(i.__hardfp_sinf)
    i.__hardfp_sqrtf                         0x08029070   Section        0  sqrtf.o(i.__hardfp_sqrtf)
    i.__ieee754_rem_pio2                     0x080290b0   Section        0  rred.o(i.__ieee754_rem_pio2)
    i.__kernel_cos                           0x080293b8   Section        0  cos_i.o(i.__kernel_cos)
    i.__kernel_poly                          0x0802947c   Section        0  poly.o(i.__kernel_poly)
    i.__kernel_sin                           0x080294f0   Section        0  sin_i.o(i.__kernel_sin)
    i.__mathlib_dbl_invalid                  0x08029590   Section        0  dunder.o(i.__mathlib_dbl_invalid)
    i.__mathlib_dbl_underflow                0x080295a8   Section        0  dunder.o(i.__mathlib_dbl_underflow)
    i.__mathlib_flt_infnan                   0x080295c0   Section        0  funder.o(i.__mathlib_flt_infnan)
    i.__mathlib_flt_infnan2                  0x080295c6   Section        0  funder.o(i.__mathlib_flt_infnan2)
    i.__mathlib_flt_invalid                  0x080295cc   Section        0  funder.o(i.__mathlib_flt_invalid)
    i.__mathlib_flt_underflow                0x080295dc   Section        0  funder.o(i.__mathlib_flt_underflow)
    i.__mathlib_rredf2                       0x080295ec   Section        0  rredf.o(i.__mathlib_rredf2)
    i.__scatterload_copy                     0x08029740   Section       14  handlers.o(i.__scatterload_copy)
    i.__scatterload_null                     0x0802974e   Section        2  handlers.o(i.__scatterload_null)
    i.__scatterload_zeroinit                 0x08029750   Section       14  handlers.o(i.__scatterload_zeroinit)
    i.__set_errno                            0x08029760   Section        0  errno.o(i.__set_errno)
    i.fabs                                   0x0802976c   Section        0  fabs.o(i.fabs)
    i.free                                   0x08029784   Section        0  malloc.o(i.free)
    i.malloc                                 0x080297d4   Section        0  malloc.o(i.malloc)
    i.sqrtf                                  0x08029840   Section        0  sqrtf.o(i.sqrtf)
    .constdata                               0x0802987e   Section      129  ctype_o.o(.constdata)
    table                                    0x08029900   Data           4  ctype_o.o(.constdata)
    .constdata                               0x08029900   Section        4  ctype_o.o(.constdata)
    C                                        0x08029908   Data          48  cos_i.o(.constdata)
    .constdata                               0x08029908   Section       48  cos_i.o(.constdata)
    pio2s                                    0x08029938   Data          48  rred.o(.constdata)
    .constdata                               0x08029938   Section      204  rred.o(.constdata)
    twooverpi                                0x08029968   Data         156  rred.o(.constdata)
    twooverpi                                0x08029a04   Data          32  rredf.o(.constdata)
    .constdata                               0x08029a04   Section       32  rredf.o(.constdata)
    S                                        0x08029a28   Data          40  sin_i.o(.constdata)
    .constdata                               0x08029a28   Section       40  sin_i.o(.constdata)
    .L__const.Buzzer_Register.buzzer_config  0x08029a50   Data          24  buzzer.o(.rodata..L__const.Buzzer_Register.buzzer_config)
    .L__const.Buzzer_Task_Init.attr          0x08029a68   Data          36  daemon_task.o(.rodata..L__const.Buzzer_Task_Init.attr)
    .L__const.Chassis_Task_Init.attr         0x08029a8c   Data          36  chassis_task.o(.rodata..L__const.Chassis_Task_Init.attr)
    .L__const.Control_Task_Init.attr         0x08029ab0   Data          36  control_task.o(.rodata..L__const.Control_Task_Init.attr)
    .L__const.Gimbal_Task_Init.attr          0x08029ad4   Data          36  gimbal_task.o(.rodata..L__const.Gimbal_Task_Init.attr)
    .L__const.HAL_FDCAN_Init.CvtEltSize      0x08029af8   Data          76  stm32h7xx_hal_fdcan.o(.rodata..L__const.HAL_FDCAN_Init.CvtEltSize)
    .L__const.INS_Task_Init.attr             0x08029b44   Data          36  ins_task.o(.rodata..L__const.INS_Task_Init.attr)
    .L__const.Procotol_Task_Init.attr        0x08029b68   Data          36  procotol_task.o(.rodata..L__const.Procotol_Task_Init.attr)
    .L__const.Referee_Init.supervisor_conf   0x08029b8c   Data          12  referee.o(.rodata..L__const.Referee_Init.supervisor_conf)
    .L__const.Remote_Control_Init.supervisor_conf 0x08029b98   Data          12  remote_control.o(.rodata..L__const.Remote_Control_Init.supervisor_conf)
    .L__const.Shoot_Task_Init.attr           0x08029ba4   Data          36  shoot_task.o(.rodata..L__const.Shoot_Task_Init.attr)
    .L__const.UI_Task_Init.attr              0x08029bc8   Data          36  ui.o(.rodata..L__const.UI_Task_Init.attr)
    DLCtoBytes                               0x08029dfc   Data          16  stm32h7xx_hal_fdcan.o(.rodata.DLCtoBytes)
    [Anonymous Symbol]                       0x08029dfc   Section        0  stm32h7xx_hal_fdcan.o(.rodata.DLCtoBytes)
    DMA_CalcBaseAndBitshift.flagBitshiftOffset 0x08029e0c   Data           8  stm32h7xx_hal_dma.o(.rodata.DMA_CalcBaseAndBitshift.flagBitshiftOffset)
    [Anonymous Symbol]                       0x08029e0c   Section        0  stm32h7xx_hal_dma.o(.rodata.DMA_CalcBaseAndBitshift.flagBitshiftOffset)
    UARTEx_SetNbDataToProcess.denominator    0x08029f8f   Data           8  stm32h7xx_hal_uart_ex.o(.rodata.UARTEx_SetNbDataToProcess.denominator)
    [Anonymous Symbol]                       0x08029f8f   Section        0  stm32h7xx_hal_uart_ex.o(.rodata.UARTEx_SetNbDataToProcess.denominator)
    UARTEx_SetNbDataToProcess.numerator      0x08029f97   Data           8  stm32h7xx_hal_uart_ex.o(.rodata.UARTEx_SetNbDataToProcess.numerator)
    [Anonymous Symbol]                       0x08029f97   Section        0  stm32h7xx_hal_uart_ex.o(.rodata.UARTEx_SetNbDataToProcess.numerator)
    _note_tab                                0x08029fdc   Data           7  buzzer.o(.rodata._note_tab)
    [Anonymous Symbol]                       0x08029fdc   Section        0  buzzer.o(.rodata._note_tab)
    [Anonymous Symbol]                       0x0802a014   Section        0  freertos.o(.rodata.str1.1)
    .L.str                                   0x0802a020   Data           5  tasks.o(.rodata.str1.1)
    [Anonymous Symbol]                       0x0802a020   Section        0  tasks.o(.rodata.str1.1)
    .L.str.1                                 0x0802a025   Data           5  timers.o(.rodata.str1.1)
    [Anonymous Symbol]                       0x0802a025   Section        0  timers.o(.rodata.str1.1)
    .L.str                                   0x0802a02a   Data           8  timers.o(.rodata.str1.1)
    .L.str.1                                 0x0802a032   Data          17  ui.o(.rodata.str1.1)
    [Anonymous Symbol]                       0x0802a032   Section        0  ui.o(.rodata.str1.1)
    .L.str.2                                 0x0802a043   Data          15  ui.o(.rodata.str1.1)
    .L.str                                   0x0802a05a   Data           5  ui_infantry_group1_0.o(.rodata.str1.1)
    [Anonymous Symbol]                       0x0802a05a   Section        0  ui_infantry_group1_0.o(.rodata.str1.1)
    .L.str                                   0x0802a05f   Data           5  ui_infantry_group1_1.o(.rodata.str1.1)
    [Anonymous Symbol]                       0x0802a05f   Section        0  ui_infantry_group1_1.o(.rodata.str1.1)
    .L.str                                   0x0802a064   Data           4  ui_infantry_group1_2.o(.rodata.str1.1)
    [Anonymous Symbol]                       0x0802a064   Section        0  ui_infantry_group1_2.o(.rodata.str1.1)
    .L.str                                   0x0802a068   Data           4  ui_infantry_group1_5.o(.rodata.str1.1)
    [Anonymous Symbol]                       0x0802a068   Section        0  ui_infantry_group1_5.o(.rodata.str1.1)
    [Anonymous Symbol]                       0x0802a06c   Section        0  chassis_task.o(.rodata.str1.1)
    [Anonymous Symbol]                       0x0802a079   Section        0  gimbal_task.o(.rodata.str1.1)
    .L.str.1                                 0x0802a085   Data          20  shoot_task.o(.rodata.str1.1)
    [Anonymous Symbol]                       0x0802a085   Section        0  shoot_task.o(.rodata.str1.1)
    .L.str.2                                 0x0802a099   Data          18  shoot_task.o(.rodata.str1.1)
    [Anonymous Symbol]                       0x0802a0b6   Section        0  daemon_task.o(.rodata.str1.1)
    .L.str.1                                 0x0802a0c2   Data          21  daemon_task.o(.rodata.str1.1)
    .L.str.2                                 0x0802a0d7   Data          19  daemon_task.o(.rodata.str1.1)
    .L.str.1                                 0x0802a0f6   Data          18  ins_task.o(.rodata.str1.1)
    [Anonymous Symbol]                       0x0802a0f6   Section        0  ins_task.o(.rodata.str1.1)
    .L.str.2                                 0x0802a108   Data          16  ins_task.o(.rodata.str1.1)
    .L.str.1                                 0x0802a121   Data          23  procotol_task.o(.rodata.str1.1)
    [Anonymous Symbol]                       0x0802a121   Section        0  procotol_task.o(.rodata.str1.1)
    .L.str.2                                 0x0802a138   Data          21  procotol_task.o(.rodata.str1.1)
    [Anonymous Symbol]                       0x0802a15b   Section        0  control_task.o(.rodata.str1.1)
    .L.str.3                                 0x0802a168   Data          14  usbd_desc.o(.rodata.str1.1)
    [Anonymous Symbol]                       0x0802a168   Section        0  usbd_desc.o(.rodata.str1.1)
    .L.str.2                                 0x0802a176   Data          11  usbd_desc.o(.rodata.str1.1)
    .L.str.1                                 0x0802a181   Data          19  usbd_desc.o(.rodata.str1.1)
    .L.str                                   0x0802a194   Data          22  usbd_desc.o(.rodata.str1.1)
    .data                                    0x24000000   Section        4  mvars.o(.data)
    .data                                    0x24000004   Section        4  mvars.o(.data)
    _errno                                   0x24000008   Data           4  errno.o(.data)
    .data                                    0x24000008   Section        4  errno.o(.data)
    BMI088_Accel_Read.tx                     0x2400000c   Data           8  bmi088.o(.data.BMI088_Accel_Read.tx)
    [Anonymous Symbol]                       0x2400000c   Section        0  bmi088.o(.data.BMI088_Accel_Read.tx)
    BMI088_Calibrate_IMU.acc_cali_time       0x24000014   Data           2  bmi088.o(.data.BMI088_Calibrate_IMU.acc_cali_time)
    [Anonymous Symbol]                       0x24000014   Section        0  bmi088.o(.data.BMI088_Calibrate_IMU.acc_cali_time)
    BMI088_Calibrate_IMU.cail_time           0x24000016   Data           2  bmi088.o(.data.BMI088_Calibrate_IMU.cail_time)
    [Anonymous Symbol]                       0x24000016   Section        0  bmi088.o(.data.BMI088_Calibrate_IMU.cail_time)
    BMI088_Gyro_Read.tx                      0x24000018   Data           8  bmi088.o(.data.BMI088_Gyro_Read.tx)
    [Anonymous Symbol]                       0x24000018   Section        0  bmi088.o(.data.BMI088_Gyro_Read.tx)
    CAN_Add_Filter.can2_filter_idx           0x24000020   Data           1  bsp_can.o(.data.CAN_Add_Filter.can2_filter_idx)
    [Anonymous Symbol]                       0x24000020   Section        0  bsp_can.o(.data.CAN_Add_Filter.can2_filter_idx)
    CAN_Add_Filter.can3_filter_idx           0x24000021   Data           1  bsp_can.o(.data.CAN_Add_Filter.can3_filter_idx)
    [Anonymous Symbol]                       0x24000021   Section        0  bsp_can.o(.data.CAN_Add_Filter.can3_filter_idx)
    CDCCmdEpAdd                              0x24000022   Data           1  usbd_cdc.o(.data.CDCCmdEpAdd)
    [Anonymous Symbol]                       0x24000022   Section        0  usbd_cdc.o(.data.CDCCmdEpAdd)
    CDCInEpAdd                               0x24000023   Data           1  usbd_cdc.o(.data.CDCInEpAdd)
    [Anonymous Symbol]                       0x24000023   Section        0  usbd_cdc.o(.data.CDCInEpAdd)
    CDCOutEpAdd                              0x24000024   Data           1  usbd_cdc.o(.data.CDCOutEpAdd)
    [Anonymous Symbol]                       0x24000024   Section        0  usbd_cdc.o(.data.CDCOutEpAdd)
    USBD_CDC_CfgDesc                         0x24000128   Data          67  usbd_cdc.o(.data.USBD_CDC_CfgDesc)
    [Anonymous Symbol]                       0x24000128   Section        0  usbd_cdc.o(.data.USBD_CDC_CfgDesc)
    USBD_CDC_DeviceQualifierDesc             0x2400016c   Data          10  usbd_cdc.o(.data.USBD_CDC_DeviceQualifierDesc)
    [Anonymous Symbol]                       0x2400016c   Section        0  usbd_cdc.o(.data.USBD_CDC_DeviceQualifierDesc)
    bmi088_accel_init_table                  0x240002b0   Data          18  bmi088.o(.data.bmi088_accel_init_table)
    [Anonymous Symbol]                       0x240002b0   Section        0  bmi088.o(.data.bmi088_accel_init_table)
    bmi088_gyro_init_table                   0x240002c2   Data          18  bmi088.o(.data.bmi088_gyro_init_table)
    [Anonymous Symbol]                       0x240002c2   Section        0  bmi088.o(.data.bmi088_gyro_init_table)
    message_center                           0x2400060c   Data          48  message_center.o(.data.message_center)
    [Anonymous Symbol]                       0x2400060c   Section        0  message_center.o(.data.message_center)
    sender_assignment                        0x24000730   Data        1200  dji_motor.o(.data.sender_assignment)
    [Anonymous Symbol]                       0x24000730   Section        0  dji_motor.o(.data.sender_assignment)
    shoot_sender_assignment                  0x24000be0   Data         160  shoot_motor.o(.data.shoot_sender_assignment)
    [Anonymous Symbol]                       0x24000be0   Section        0  shoot_motor.o(.data.shoot_sender_assignment)
    uxCriticalNesting                        0x24000dcc   Data           4  port.o(.data.uxCriticalNesting)
    [Anonymous Symbol]                       0x24000dcc   Section        0  port.o(.data.uxCriticalNesting)
    BMI088_Accel_INT_Callback.bmi088         0x24000dd8   Data           4  bmi088.o(.bss.BMI088_Accel_INT_Callback.bmi088)
    [Anonymous Symbol]                       0x24000dd8   Section        0  bmi088.o(.bss.BMI088_Accel_INT_Callback.bmi088)
    BMI088_Accel_Read.rx                     0x24000ddc   Data           8  bmi088.o(.bss.BMI088_Accel_Read.rx)
    [Anonymous Symbol]                       0x24000ddc   Section        0  bmi088.o(.bss.BMI088_Accel_Read.rx)
    BMI088_Accel_SPI_Finish_Callback.bmi088  0x24000de4   Data           4  bmi088.o(.bss.BMI088_Accel_SPI_Finish_Callback.bmi088)
    [Anonymous Symbol]                       0x24000de4   Section        0  bmi088.o(.bss.BMI088_Accel_SPI_Finish_Callback.bmi088)
    BMI088_Accel_SPI_Finish_Callback.callback_time 0x24000de8   Data           2  bmi088.o(.bss.BMI088_Accel_SPI_Finish_Callback.callback_time)
    [Anonymous Symbol]                       0x24000de8   Section        0  bmi088.o(.bss.BMI088_Accel_SPI_Finish_Callback.callback_time)
    BMI088_Calibrate_IMU.cali_time_count     0x24000dea   Data           2  bmi088.o(.bss.BMI088_Calibrate_IMU.cali_time_count)
    [Anonymous Symbol]                       0x24000dea   Section        0  bmi088.o(.bss.BMI088_Calibrate_IMU.cali_time_count)
    BMI088_Calibrate_IMU.start_time          0x24000dec   Data           4  bmi088.o(.bss.BMI088_Calibrate_IMU.start_time)
    [Anonymous Symbol]                       0x24000dec   Section        0  bmi088.o(.bss.BMI088_Calibrate_IMU.start_time)
    BMI088_Gyro_INT_Callback.bmi088          0x24000df0   Data           4  bmi088.o(.bss.BMI088_Gyro_INT_Callback.bmi088)
    [Anonymous Symbol]                       0x24000df0   Section        0  bmi088.o(.bss.BMI088_Gyro_INT_Callback.bmi088)
    BMI088_Gyro_Read.rx                      0x24000df4   Data           8  bmi088.o(.bss.BMI088_Gyro_Read.rx)
    [Anonymous Symbol]                       0x24000df4   Section        0  bmi088.o(.bss.BMI088_Gyro_Read.rx)
    BMI088_Gyro_SPI_Finish_Callback.bmi088   0x24000dfc   Data           4  bmi088.o(.bss.BMI088_Gyro_SPI_Finish_Callback.bmi088)
    [Anonymous Symbol]                       0x24000dfc   Section        0  bmi088.o(.bss.BMI088_Gyro_SPI_Finish_Callback.bmi088)
    BMI088_Read_All.buf                      0x24000e00   Data           6  bmi088.o(.bss.BMI088_Read_All.buf)
    [Anonymous Symbol]                       0x24000e00   Section        0  bmi088.o(.bss.BMI088_Read_All.buf)
    BMI088_Register.error_count              0x24000e06   Data           1  bmi088.o(.bss.BMI088_Register.error_count)
    [Anonymous Symbol]                       0x24000e06   Section        0  bmi088.o(.bss.BMI088_Register.error_count)
    CANFIFOxCallback.can_rx_buff             0x24000e0c   Data          64  bsp_can.o(.bss.CANFIFOxCallback.can_rx_buff)
    [Anonymous Symbol]                       0x24000e0c   Section        0  bsp_can.o(.bss.CANFIFOxCallback.can_rx_buff)
    CANFIFOxCallback.rx_config_header        0x24000e4c   Data          40  bsp_can.o(.bss.CANFIFOxCallback.rx_config_header)
    [Anonymous Symbol]                       0x24000e4c   Section        0  bsp_can.o(.bss.CANFIFOxCallback.rx_config_header)
    CAN_Add_Filter.can1_filter_idx           0x24000e74   Data           1  bsp_can.o(.bss.CAN_Add_Filter.can1_filter_idx)
    [Anonymous Symbol]                       0x24000e74   Section        0  bsp_can.o(.bss.CAN_Add_Filter.can1_filter_idx)
    CAN_Transmit.busy_count                  0x24000e78   Data           4  bsp_can.o(.bss.CAN_Transmit.busy_count)
    [Anonymous Symbol]                       0x24000e78   Section        0  bsp_can.o(.bss.CAN_Transmit.busy_count)
    CPU_frequency                            0x24000e7c   Data           4  bsp_dwt.o(.bss.CPU_frequency)
    [Anonymous Symbol]                       0x24000e7c   Section        0  bsp_dwt.o(.bss.CPU_frequency)
    CPU_frequency_ms                         0x24000e80   Data           4  bsp_dwt.o(.bss.CPU_frequency_ms)
    [Anonymous Symbol]                       0x24000e80   Section        0  bsp_dwt.o(.bss.CPU_frequency_ms)
    CPU_frequency_us                         0x24000e84   Data           4  bsp_dwt.o(.bss.CPU_frequency_us)
    [Anonymous Symbol]                       0x24000e84   Section        0  bsp_dwt.o(.bss.CPU_frequency_us)
    CYCCNT_last                              0x24000e90   Data           4  bsp_dwt.o(.bss.CYCCNT_last)
    [Anonymous Symbol]                       0x24000e90   Section        0  bsp_dwt.o(.bss.CYCCNT_last)
    CYCCNT_round_count                       0x24000e94   Data           4  bsp_dwt.o(.bss.CYCCNT_round_count)
    [Anonymous Symbol]                       0x24000e94   Section        0  bsp_dwt.o(.bss.CYCCNT_round_count)
    DWT_CNT_Update.bit_locker                0x24000ea8   Data           1  bsp_dwt.o(.bss.DWT_CNT_Update.bit_locker)
    [Anonymous Symbol]                       0x24000ea8   Section        0  bsp_dwt.o(.bss.DWT_CNT_Update.bit_locker)
    DWT_System_Time_Update.CNT_TEMP1         0x24000eb0   Data           8  bsp_dwt.o(.bss.DWT_System_Time_Update.CNT_TEMP1)
    [Anonymous Symbol]                       0x24000eb0   Section        0  bsp_dwt.o(.bss.DWT_System_Time_Update.CNT_TEMP1)
    DWT_System_Time_Update.CNT_TEMP2         0x24000eb8   Data           8  bsp_dwt.o(.bss.DWT_System_Time_Update.CNT_TEMP2)
    [Anonymous Symbol]                       0x24000eb8   Section        0  bsp_dwt.o(.bss.DWT_System_Time_Update.CNT_TEMP2)
    DWT_System_Time_Update.CNT_TEMP3         0x24000ec0   Data           8  bsp_dwt.o(.bss.DWT_System_Time_Update.CNT_TEMP3)
    [Anonymous Symbol]                       0x24000ec0   Section        0  bsp_dwt.o(.bss.DWT_System_Time_Update.CNT_TEMP3)
    HAL_RCC_FDCAN_CLK_ENABLED                0x24000ed0   Data           4  fdcan.o(.bss.HAL_RCC_FDCAN_CLK_ENABLED)
    [Anonymous Symbol]                       0x24000ed0   Section        0  fdcan.o(.bss.HAL_RCC_FDCAN_CLK_ENABLED)
    IMU_QuaternionEKF_F_Linearization_P_Fading.q0 0x24000ed4   Data           4  quaternionekf.o(.bss.IMU_QuaternionEKF_F_Linearization_P_Fading.q0)
    [Anonymous Symbol]                       0x24000ed4   Section        0  quaternionekf.o(.bss.IMU_QuaternionEKF_F_Linearization_P_Fading.q0)
    IMU_QuaternionEKF_F_Linearization_P_Fading.q1 0x24000ed8   Data           4  quaternionekf.o(.bss.IMU_QuaternionEKF_F_Linearization_P_Fading.q1)
    [Anonymous Symbol]                       0x24000ed8   Section        0  quaternionekf.o(.bss.IMU_QuaternionEKF_F_Linearization_P_Fading.q1)
    IMU_QuaternionEKF_F_Linearization_P_Fading.q2 0x24000edc   Data           4  quaternionekf.o(.bss.IMU_QuaternionEKF_F_Linearization_P_Fading.q2)
    [Anonymous Symbol]                       0x24000edc   Section        0  quaternionekf.o(.bss.IMU_QuaternionEKF_F_Linearization_P_Fading.q2)
    IMU_QuaternionEKF_F_Linearization_P_Fading.q3 0x24000ee0   Data           4  quaternionekf.o(.bss.IMU_QuaternionEKF_F_Linearization_P_Fading.q3)
    [Anonymous Symbol]                       0x24000ee0   Section        0  quaternionekf.o(.bss.IMU_QuaternionEKF_F_Linearization_P_Fading.q3)
    IMU_QuaternionEKF_F_Linearization_P_Fading.qInvNorm 0x24000ee4   Data           4  quaternionekf.o(.bss.IMU_QuaternionEKF_F_Linearization_P_Fading.qInvNorm)
    [Anonymous Symbol]                       0x24000ee4   Section        0  quaternionekf.o(.bss.IMU_QuaternionEKF_F_Linearization_P_Fading.qInvNorm)
    IMU_QuaternionEKF_SetH.doubleq0          0x24000f78   Data           4  quaternionekf.o(.bss.IMU_QuaternionEKF_SetH.doubleq0)
    [Anonymous Symbol]                       0x24000f78   Section        0  quaternionekf.o(.bss.IMU_QuaternionEKF_SetH.doubleq0)
    IMU_QuaternionEKF_SetH.doubleq1          0x24000f7c   Data           4  quaternionekf.o(.bss.IMU_QuaternionEKF_SetH.doubleq1)
    [Anonymous Symbol]                       0x24000f7c   Section        0  quaternionekf.o(.bss.IMU_QuaternionEKF_SetH.doubleq1)
    IMU_QuaternionEKF_SetH.doubleq2          0x24000f80   Data           4  quaternionekf.o(.bss.IMU_QuaternionEKF_SetH.doubleq2)
    [Anonymous Symbol]                       0x24000f80   Section        0  quaternionekf.o(.bss.IMU_QuaternionEKF_SetH.doubleq2)
    IMU_QuaternionEKF_SetH.doubleq3          0x24000f84   Data           4  quaternionekf.o(.bss.IMU_QuaternionEKF_SetH.doubleq3)
    [Anonymous Symbol]                       0x24000f84   Section        0  quaternionekf.o(.bss.IMU_QuaternionEKF_SetH.doubleq3)
    IMU_QuaternionEKF_Update.accelInvNorm    0x24000f88   Data           4  quaternionekf.o(.bss.IMU_QuaternionEKF_Update.accelInvNorm)
    [Anonymous Symbol]                       0x24000f88   Section        0  quaternionekf.o(.bss.IMU_QuaternionEKF_Update.accelInvNorm)
    IMU_QuaternionEKF_Update.halfgxdt        0x24000f8c   Data           4  quaternionekf.o(.bss.IMU_QuaternionEKF_Update.halfgxdt)
    [Anonymous Symbol]                       0x24000f8c   Section        0  quaternionekf.o(.bss.IMU_QuaternionEKF_Update.halfgxdt)
    IMU_QuaternionEKF_Update.halfgydt        0x24000f90   Data           4  quaternionekf.o(.bss.IMU_QuaternionEKF_Update.halfgydt)
    [Anonymous Symbol]                       0x24000f90   Section        0  quaternionekf.o(.bss.IMU_QuaternionEKF_Update.halfgydt)
    IMU_QuaternionEKF_Update.halfgzdt        0x24000f94   Data           4  quaternionekf.o(.bss.IMU_QuaternionEKF_Update.halfgzdt)
    [Anonymous Symbol]                       0x24000f94   Section        0  quaternionekf.o(.bss.IMU_QuaternionEKF_Update.halfgzdt)
    IMU_QuaternionEKF_xhatUpdate.q0          0x24000f98   Data           4  quaternionekf.o(.bss.IMU_QuaternionEKF_xhatUpdate.q0)
    [Anonymous Symbol]                       0x24000f98   Section        0  quaternionekf.o(.bss.IMU_QuaternionEKF_xhatUpdate.q0)
    IMU_QuaternionEKF_xhatUpdate.q1          0x24000f9c   Data           4  quaternionekf.o(.bss.IMU_QuaternionEKF_xhatUpdate.q1)
    [Anonymous Symbol]                       0x24000f9c   Section        0  quaternionekf.o(.bss.IMU_QuaternionEKF_xhatUpdate.q1)
    IMU_QuaternionEKF_xhatUpdate.q2          0x24000fa0   Data           4  quaternionekf.o(.bss.IMU_QuaternionEKF_xhatUpdate.q2)
    [Anonymous Symbol]                       0x24000fa0   Section        0  quaternionekf.o(.bss.IMU_QuaternionEKF_xhatUpdate.q2)
    IMU_QuaternionEKF_xhatUpdate.q3          0x24000fa4   Data           4  quaternionekf.o(.bss.IMU_QuaternionEKF_xhatUpdate.q3)
    [Anonymous Symbol]                       0x24000fa4   Section        0  quaternionekf.o(.bss.IMU_QuaternionEKF_xhatUpdate.q3)
    INS_Task.INS_dwt_count                   0x2400103c   Data           4  ins_task.o(.bss.INS_Task.INS_dwt_count)
    [Anonymous Symbol]                       0x2400103c   Section        0  ins_task.o(.bss.INS_Task.INS_dwt_count)
    INS_publisher                            0x24001040   Data           4  ins_task.o(.bss.INS_publisher)
    [Anonymous Symbol]                       0x24001040   Section        0  ins_task.o(.bss.INS_publisher)
    INS_subscriber                           0x24001044   Data           4  ins_task.o(.bss.INS_subscriber)
    [Anonymous Symbol]                       0x24001044   Section        0  ins_task.o(.bss.INS_subscriber)
    KernelState                              0x24001070   Data           4  cmsis_os2.o(.bss.KernelState)
    [Anonymous Symbol]                       0x24001070   Section        0  cmsis_os2.o(.bss.KernelState)
    USBD_SetConfig.cfgidx                    0x2400128c   Data           1  usbd_ctlreq.o(.bss.USBD_SetConfig.cfgidx)
    [Anonymous Symbol]                       0x2400128c   Section        0  usbd_ctlreq.o(.bss.USBD_SetConfig.cfgidx)
    USBD_static_malloc.mem                   0x24001490   Data         544  usbd_conf.o(.bss.USBD_static_malloc.mem)
    [Anonymous Symbol]                       0x24001490   Section        0  usbd_conf.o(.bss.USBD_static_malloc.mem)
    WS2812_Control.txbuf                     0x240026b0   Data          24  ws2812.o(.bss.WS2812_Control.txbuf)
    [Anonymous Symbol]                       0x240026b0   Section        0  ws2812.o(.bss.WS2812_Control.txbuf)
    buzzer                                   0x2400273c   Data           4  buzzer.o(.bss.buzzer)
    [Anonymous Symbol]                       0x2400273c   Section        0  buzzer.o(.bss.buzzer)
    buzzer_one_note_flag                     0x24002740   Data           1  buzzer.o(.bss.buzzer_one_note_flag)
    [Anonymous Symbol]                       0x24002740   Section        0  buzzer.o(.bss.buzzer_one_note_flag)
    buzzer_one_note_time                     0x24002744   Data           4  buzzer.o(.bss.buzzer_one_note_time)
    [Anonymous Symbol]                       0x24002744   Section        0  buzzer.o(.bss.buzzer_one_note_time)
    can_instances                            0x24002748   Data          96  bsp_can.o(.bss.can_instances)
    [Anonymous Symbol]                       0x24002748   Section        0  bsp_can.o(.bss.can_instances)
    dji_motor_instances                      0x24002bf8   Data          48  dji_motor.o(.bss.dji_motor_instances)
    [Anonymous Symbol]                       0x24002bf8   Section        0  dji_motor.o(.bss.dji_motor_instances)
    dm_motor_instances                       0x24002c28   Data          16  dm_motor.o(.bss.dm_motor_instances)
    [Anonymous Symbol]                       0x24002c28   Section        0  dm_motor.o(.bss.dm_motor_instances)
    gpio_instances                           0x24003090   Data          32  bsp_gpio.o(.bss.gpio_instances)
    [Anonymous Symbol]                       0x24003090   Section        0  bsp_gpio.o(.bss.gpio_instances)
    idx                                      0x24004370   Data           1  bsp_pwm.o(.bss.idx)
    [Anonymous Symbol]                       0x24004370   Section        0  bsp_pwm.o(.bss.idx)
    idx                                      0x24004371   Data           1  bsp_can.o(.bss.idx)
    [Anonymous Symbol]                       0x24004371   Section        0  bsp_can.o(.bss.idx)
    idx                                      0x24004372   Data           1  bsp_usart.o(.bss.idx)
    [Anonymous Symbol]                       0x24004372   Section        0  bsp_usart.o(.bss.idx)
    idx                                      0x24004373   Data           1  bsp_spi.o(.bss.idx)
    [Anonymous Symbol]                       0x24004373   Section        0  bsp_spi.o(.bss.idx)
    idx                                      0x24004374   Data           1  bsp_gpio.o(.bss.idx)
    [Anonymous Symbol]                       0x24004374   Section        0  bsp_gpio.o(.bss.idx)
    idx                                      0x24004375   Data           1  defense_center.o(.bss.idx)
    [Anonymous Symbol]                       0x24004375   Section        0  defense_center.o(.bss.idx)
    idx                                      0x24004376   Data           1  dji_motor.o(.bss.idx)
    [Anonymous Symbol]                       0x24004376   Section        0  dji_motor.o(.bss.idx)
    idx                                      0x24004377   Data           1  dm_motor.o(.bss.idx)
    [Anonymous Symbol]                       0x24004377   Section        0  dm_motor.o(.bss.idx)
    idx                                      0x24004378   Data           1  shoot_motor.o(.bss.idx)
    [Anonymous Symbol]                       0x24004378   Section        0  shoot_motor.o(.bss.idx)
    procotol_publisher                       0x24004404   Data           4  procotol_task.o(.bss.procotol_publisher)
    [Anonymous Symbol]                       0x24004404   Section        0  procotol_task.o(.bss.procotol_publisher)
    procotol_subscriber                      0x24004408   Data           4  procotol_task.o(.bss.procotol_subscriber)
    [Anonymous Symbol]                       0x24004408   Section        0  procotol_task.o(.bss.procotol_subscriber)
    prvCheckForValidListAndQueue.ucStaticTimerQueueStorage 0x24004414   Data         160  timers.o(.bss.prvCheckForValidListAndQueue.ucStaticTimerQueueStorage)
    [Anonymous Symbol]                       0x24004414   Section        0  timers.o(.bss.prvCheckForValidListAndQueue.ucStaticTimerQueueStorage)
    prvCheckForValidListAndQueue.xStaticTimerQueue 0x240044b4   Data          80  timers.o(.bss.prvCheckForValidListAndQueue.xStaticTimerQueue)
    [Anonymous Symbol]                       0x240044b4   Section        0  timers.o(.bss.prvCheckForValidListAndQueue.xStaticTimerQueue)
    prvSampleTimeNow.xLastTime               0x24004504   Data           4  timers.o(.bss.prvSampleTimeNow.xLastTime)
    [Anonymous Symbol]                       0x24004504   Section        0  timers.o(.bss.prvSampleTimeNow.xLastTime)
    pwm_instances                            0x24004508   Data          64  bsp_pwm.o(.bss.pwm_instances)
    [Anonymous Symbol]                       0x24004508   Section        0  bsp_pwm.o(.bss.pwm_instances)
    pxCurrentTimerList                       0x2400454c   Data           4  timers.o(.bss.pxCurrentTimerList)
    [Anonymous Symbol]                       0x2400454c   Section        0  timers.o(.bss.pxCurrentTimerList)
    pxDelayedTaskList                        0x24004550   Data           4  tasks.o(.bss.pxDelayedTaskList)
    [Anonymous Symbol]                       0x24004550   Section        0  tasks.o(.bss.pxDelayedTaskList)
    pxEnd                                    0x24004554   Data           4  heap_4.o(.bss.pxEnd)
    [Anonymous Symbol]                       0x24004554   Section        0  heap_4.o(.bss.pxEnd)
    pxOverflowDelayedTaskList                0x24004558   Data           4  tasks.o(.bss.pxOverflowDelayedTaskList)
    [Anonymous Symbol]                       0x24004558   Section        0  tasks.o(.bss.pxOverflowDelayedTaskList)
    pxOverflowTimerList                      0x2400455c   Data           4  timers.o(.bss.pxOverflowTimerList)
    [Anonymous Symbol]                       0x2400455c   Section        0  timers.o(.bss.pxOverflowTimerList)
    pxReadyTasksLists                        0x24004560   Data        1120  tasks.o(.bss.pxReadyTasksLists)
    [Anonymous Symbol]                       0x24004560   Section        0  tasks.o(.bss.pxReadyTasksLists)
    rc_ctrl                                  0x240049c4   Data         144  remote_control.o(.bss.rc_ctrl)
    [Anonymous Symbol]                       0x240049c4   Section        0  remote_control.o(.bss.rc_ctrl)
    rc_init_flag                             0x24004a54   Data           1  remote_control.o(.bss.rc_init_flag)
    [Anonymous Symbol]                       0x24004a54   Section        0  remote_control.o(.bss.rc_init_flag)
    rc_supervisor_instance                   0x24004a58   Data           4  remote_control.o(.bss.rc_supervisor_instance)
    [Anonymous Symbol]                       0x24004a58   Section        0  remote_control.o(.bss.rc_supervisor_instance)
    rc_usart_instance                        0x24004a5c   Data           4  remote_control.o(.bss.rc_usart_instance)
    [Anonymous Symbol]                       0x24004a5c   Section        0  remote_control.o(.bss.rc_usart_instance)
    referee_supervisor_instance              0x24004a60   Data           4  referee.o(.bss.referee_supervisor_instance)
    [Anonymous Symbol]                       0x24004a60   Section        0  referee.o(.bss.referee_supervisor_instance)
    refree_info                              0x24004a6c   Data         294  referee.o(.bss.refree_info)
    [Anonymous Symbol]                       0x24004a6c   Section        0  referee.o(.bss.refree_info)
    refree_init_flag                         0x24004b92   Data           1  referee.o(.bss.refree_init_flag)
    [Anonymous Symbol]                       0x24004b92   Section        0  referee.o(.bss.refree_init_flag)
    sender_enable_flag                       0x24004b98   Data          15  dji_motor.o(.bss.sender_enable_flag)
    [Anonymous Symbol]                       0x24004b98   Section        0  dji_motor.o(.bss.sender_enable_flag)
    shoot_motor_instances                    0x24004bac   Data          12  shoot_motor.o(.bss.shoot_motor_instances)
    [Anonymous Symbol]                       0x24004bac   Section        0  shoot_motor.o(.bss.shoot_motor_instances)
    shoot_publisher                          0x24004bbc   Data           4  shoot_task.o(.bss.shoot_publisher)
    [Anonymous Symbol]                       0x24004bbc   Section        0  shoot_task.o(.bss.shoot_publisher)
    shoot_subscriber                         0x24004bc4   Data           4  shoot_task.o(.bss.shoot_subscriber)
    [Anonymous Symbol]                       0x24004bc4   Section        0  shoot_task.o(.bss.shoot_subscriber)
    spi_instances                            0x24004bd8   Data           8  bsp_spi.o(.bss.spi_instances)
    [Anonymous Symbol]                       0x24004bd8   Section        0  bsp_spi.o(.bss.spi_instances)
    supervisor_instances                     0x24004be8   Data         256  defense_center.o(.bss.supervisor_instances)
    [Anonymous Symbol]                       0x24004be8   Section        0  defense_center.o(.bss.supervisor_instances)
    ucHeap                                   0x24004d81   Data       15360  heap_4.o(.bss.ucHeap)
    [Anonymous Symbol]                       0x24004d81   Section        0  heap_4.o(.bss.ucHeap)
    ucMaxSysCallPriority                     0x24008981   Data           1  port.o(.bss.ucMaxSysCallPriority)
    [Anonymous Symbol]                       0x24008981   Section        0  port.o(.bss.ucMaxSysCallPriority)
    ui_publisher                             0x24008bb8   Data           4  ui.o(.bss.ui_publisher)
    [Anonymous Symbol]                       0x24008bb8   Section        0  ui.o(.bss.ui_publisher)
    ui_subscriber                            0x24008bbc   Data           4  ui.o(.bss.ui_subscriber)
    [Anonymous Symbol]                       0x24008bbc   Section        0  ui.o(.bss.ui_subscriber)
    ulMaxPRIGROUPValue                       0x24008bc4   Data           4  port.o(.bss.ulMaxPRIGROUPValue)
    [Anonymous Symbol]                       0x24008bc4   Section        0  port.o(.bss.ulMaxPRIGROUPValue)
    usart_instances                          0x24008bc8   Data          28  bsp_usart.o(.bss.usart_instances)
    [Anonymous Symbol]                       0x24008bc8   Section        0  bsp_usart.o(.bss.usart_instances)
    uxCurrentNumberOfTasks                   0x24008be8   Data           4  tasks.o(.bss.uxCurrentNumberOfTasks)
    [Anonymous Symbol]                       0x24008be8   Section        0  tasks.o(.bss.uxCurrentNumberOfTasks)
    uxDeletedTasksWaitingCleanUp             0x24008bec   Data           4  tasks.o(.bss.uxDeletedTasksWaitingCleanUp)
    [Anonymous Symbol]                       0x24008bec   Section        0  tasks.o(.bss.uxDeletedTasksWaitingCleanUp)
    uxSchedulerSuspended                     0x24008bf0   Data           4  tasks.o(.bss.uxSchedulerSuspended)
    [Anonymous Symbol]                       0x24008bf0   Section        0  tasks.o(.bss.uxSchedulerSuspended)
    uxTaskNumber                             0x24008bf4   Data           4  tasks.o(.bss.uxTaskNumber)
    [Anonymous Symbol]                       0x24008bf4   Section        0  tasks.o(.bss.uxTaskNumber)
    uxTopReadyPriority                       0x24008bf8   Data           4  tasks.o(.bss.uxTopReadyPriority)
    [Anonymous Symbol]                       0x24008bf8   Section        0  tasks.o(.bss.uxTopReadyPriority)
    vApplicationGetIdleTaskMemory.Idle_Stack 0x24008bfc   Data         512  cmsis_os2.o(.bss.vApplicationGetIdleTaskMemory.Idle_Stack)
    [Anonymous Symbol]                       0x24008bfc   Section        0  cmsis_os2.o(.bss.vApplicationGetIdleTaskMemory.Idle_Stack)
    vApplicationGetIdleTaskMemory.Idle_TCB   0x24008dfc   Data          92  cmsis_os2.o(.bss.vApplicationGetIdleTaskMemory.Idle_TCB)
    [Anonymous Symbol]                       0x24008dfc   Section        0  cmsis_os2.o(.bss.vApplicationGetIdleTaskMemory.Idle_TCB)
    vApplicationGetTimerTaskMemory.Timer_Stack 0x24008e58   Data        1024  cmsis_os2.o(.bss.vApplicationGetTimerTaskMemory.Timer_Stack)
    [Anonymous Symbol]                       0x24008e58   Section        0  cmsis_os2.o(.bss.vApplicationGetTimerTaskMemory.Timer_Stack)
    vApplicationGetTimerTaskMemory.Timer_TCB 0x24009258   Data          92  cmsis_os2.o(.bss.vApplicationGetTimerTaskMemory.Timer_TCB)
    [Anonymous Symbol]                       0x24009258   Section        0  cmsis_os2.o(.bss.vApplicationGetTimerTaskMemory.Timer_TCB)
    xActiveTimerList1                        0x24009378   Data          20  timers.o(.bss.xActiveTimerList1)
    [Anonymous Symbol]                       0x24009378   Section        0  timers.o(.bss.xActiveTimerList1)
    xActiveTimerList2                        0x2400938c   Data          20  timers.o(.bss.xActiveTimerList2)
    [Anonymous Symbol]                       0x2400938c   Section        0  timers.o(.bss.xActiveTimerList2)
    xBlockAllocatedBit                       0x240093a0   Data           4  heap_4.o(.bss.xBlockAllocatedBit)
    [Anonymous Symbol]                       0x240093a0   Section        0  heap_4.o(.bss.xBlockAllocatedBit)
    xDelayedTaskList1                        0x240093a4   Data          20  tasks.o(.bss.xDelayedTaskList1)
    [Anonymous Symbol]                       0x240093a4   Section        0  tasks.o(.bss.xDelayedTaskList1)
    xDelayedTaskList2                        0x240093b8   Data          20  tasks.o(.bss.xDelayedTaskList2)
    [Anonymous Symbol]                       0x240093b8   Section        0  tasks.o(.bss.xDelayedTaskList2)
    xFreeBytesRemaining                      0x240093cc   Data           4  heap_4.o(.bss.xFreeBytesRemaining)
    [Anonymous Symbol]                       0x240093cc   Section        0  heap_4.o(.bss.xFreeBytesRemaining)
    xIdleTaskHandle                          0x240093d0   Data           4  tasks.o(.bss.xIdleTaskHandle)
    [Anonymous Symbol]                       0x240093d0   Section        0  tasks.o(.bss.xIdleTaskHandle)
    xMinimumEverFreeBytesRemaining           0x240093d4   Data           4  heap_4.o(.bss.xMinimumEverFreeBytesRemaining)
    [Anonymous Symbol]                       0x240093d4   Section        0  heap_4.o(.bss.xMinimumEverFreeBytesRemaining)
    xNextTaskUnblockTime                     0x240093d8   Data           4  tasks.o(.bss.xNextTaskUnblockTime)
    [Anonymous Symbol]                       0x240093d8   Section        0  tasks.o(.bss.xNextTaskUnblockTime)
    xNumOfOverflows                          0x240093dc   Data           4  tasks.o(.bss.xNumOfOverflows)
    [Anonymous Symbol]                       0x240093dc   Section        0  tasks.o(.bss.xNumOfOverflows)
    xNumberOfSuccessfulAllocations           0x240093e0   Data           4  heap_4.o(.bss.xNumberOfSuccessfulAllocations)
    [Anonymous Symbol]                       0x240093e0   Section        0  heap_4.o(.bss.xNumberOfSuccessfulAllocations)
    xNumberOfSuccessfulFrees                 0x240093e4   Data           4  heap_4.o(.bss.xNumberOfSuccessfulFrees)
    [Anonymous Symbol]                       0x240093e4   Section        0  heap_4.o(.bss.xNumberOfSuccessfulFrees)
    xPendedTicks                             0x240093e8   Data           4  tasks.o(.bss.xPendedTicks)
    [Anonymous Symbol]                       0x240093e8   Section        0  tasks.o(.bss.xPendedTicks)
    xPendingReadyList                        0x240093ec   Data          20  tasks.o(.bss.xPendingReadyList)
    [Anonymous Symbol]                       0x240093ec   Section        0  tasks.o(.bss.xPendingReadyList)
    xSchedulerRunning                        0x24009440   Data           4  tasks.o(.bss.xSchedulerRunning)
    [Anonymous Symbol]                       0x24009440   Section        0  tasks.o(.bss.xSchedulerRunning)
    xStart                                   0x24009444   Data           8  heap_4.o(.bss.xStart)
    [Anonymous Symbol]                       0x24009444   Section        0  heap_4.o(.bss.xStart)
    xSuspendedTaskList                       0x2400944c   Data          20  tasks.o(.bss.xSuspendedTaskList)
    [Anonymous Symbol]                       0x2400944c   Section        0  tasks.o(.bss.xSuspendedTaskList)
    xTasksWaitingTermination                 0x24009460   Data          20  tasks.o(.bss.xTasksWaitingTermination)
    [Anonymous Symbol]                       0x24009460   Section        0  tasks.o(.bss.xTasksWaitingTermination)
    xTickCount                               0x24009474   Data           4  tasks.o(.bss.xTickCount)
    [Anonymous Symbol]                       0x24009474   Section        0  tasks.o(.bss.xTickCount)
    xTimerQueue                              0x24009478   Data           4  timers.o(.bss.xTimerQueue)
    [Anonymous Symbol]                       0x24009478   Section        0  timers.o(.bss.xTimerQueue)
    xTimerTaskHandle                         0x2400947c   Data           4  timers.o(.bss.xTimerTaskHandle)
    [Anonymous Symbol]                       0x2400947c   Section        0  timers.o(.bss.xTimerTaskHandle)
    xYieldPending                            0x24009480   Data           4  tasks.o(.bss.xYieldPending)
    [Anonymous Symbol]                       0x24009480   Section        0  tasks.o(.bss.xYieldPending)
    HEAP                                     0x240094b8   Section     5632  startup_stm32h723xx.o(HEAP)
    STACK                                    0x2400aab8   Section    12800  startup_stm32h723xx.o(STACK)

    Global Symbols

    Symbol Name                              Value     Ov Type        Size  Object(Section)

    BuildAttributes$$THM_ISAv4$E$P$D$K$B$S$7EM$VFPv5_D16$PE$PLD8$A:L22UL41UL21$X:L11$S22US41US21$IEEE1$IW$~IW$USESV6$~STKCKD$USESV7$~SHL$OTIME$ROPI$IEEEX$EBA8$MICROLIB$REQ8$PRES8$EABIv2 0x00000000   Number         0  anon$$obj.o ABSOLUTE
    __cpp_initialize__aeabi_                  - Undefined Weak Reference
    __cxa_finalize                            - Undefined Weak Reference
    _clock_init                               - Undefined Weak Reference
    _microlib_exit                            - Undefined Weak Reference
    __Vectors_Size                           0x000002cc   Number         0  startup_stm32h723xx.o ABSOLUTE
    __Vectors                                0x08000000   Data           4  startup_stm32h723xx.o(RESET)
    __Vectors_End                            0x080002cc   Data           0  startup_stm32h723xx.o(RESET)
    __main                                   0x080002cd   Thumb Code     0  entry.o(.ARM.Collect$$$$00000000)
    _main_stk                                0x080002cd   Thumb Code     0  entry2.o(.ARM.Collect$$$$00000001)
    _main_scatterload                        0x080002d1   Thumb Code     0  entry5.o(.ARM.Collect$$$$00000004)
    __main_after_scatterload                 0x080002d5   Thumb Code     0  entry5.o(.ARM.Collect$$$$00000004)
    _main_clock                              0x080002d5   Thumb Code     0  entry7b.o(.ARM.Collect$$$$00000008)
    _main_cpp_init                           0x080002d5   Thumb Code     0  entry8b.o(.ARM.Collect$$$$0000000A)
    _main_init                               0x080002d5   Thumb Code     0  entry9a.o(.ARM.Collect$$$$0000000B)
    __rt_final_cpp                           0x080002dd   Thumb Code     0  entry10a.o(.ARM.Collect$$$$0000000D)
    __rt_final_exit                          0x080002dd   Thumb Code     0  entry11a.o(.ARM.Collect$$$$0000000F)
    Reset_Handler                            0x080002e1   Thumb Code    12  startup_stm32h723xx.o(.text)
    ADC3_IRQHandler                          0x080002ff   Thumb Code     0  startup_stm32h723xx.o(.text)
    ADC_IRQHandler                           0x080002ff   Thumb Code     0  startup_stm32h723xx.o(.text)
    BDMA_Channel0_IRQHandler                 0x080002ff   Thumb Code     0  startup_stm32h723xx.o(.text)
    BDMA_Channel1_IRQHandler                 0x080002ff   Thumb Code     0  startup_stm32h723xx.o(.text)
    BDMA_Channel2_IRQHandler                 0x080002ff   Thumb Code     0  startup_stm32h723xx.o(.text)
    BDMA_Channel3_IRQHandler                 0x080002ff   Thumb Code     0  startup_stm32h723xx.o(.text)
    BDMA_Channel4_IRQHandler                 0x080002ff   Thumb Code     0  startup_stm32h723xx.o(.text)
    BDMA_Channel5_IRQHandler                 0x080002ff   Thumb Code     0  startup_stm32h723xx.o(.text)
    BDMA_Channel6_IRQHandler                 0x080002ff   Thumb Code     0  startup_stm32h723xx.o(.text)
    BDMA_Channel7_IRQHandler                 0x080002ff   Thumb Code     0  startup_stm32h723xx.o(.text)
    CEC_IRQHandler                           0x080002ff   Thumb Code     0  startup_stm32h723xx.o(.text)
    COMP1_IRQHandler                         0x080002ff   Thumb Code     0  startup_stm32h723xx.o(.text)
    CORDIC_IRQHandler                        0x080002ff   Thumb Code     0  startup_stm32h723xx.o(.text)
    CRS_IRQHandler                           0x080002ff   Thumb Code     0  startup_stm32h723xx.o(.text)
    DCMI_PSSI_IRQHandler                     0x080002ff   Thumb Code     0  startup_stm32h723xx.o(.text)
    DFSDM1_FLT0_IRQHandler                   0x080002ff   Thumb Code     0  startup_stm32h723xx.o(.text)
    DFSDM1_FLT1_IRQHandler                   0x080002ff   Thumb Code     0  startup_stm32h723xx.o(.text)
    DFSDM1_FLT2_IRQHandler                   0x080002ff   Thumb Code     0  startup_stm32h723xx.o(.text)
    DFSDM1_FLT3_IRQHandler                   0x080002ff   Thumb Code     0  startup_stm32h723xx.o(.text)
    DMA1_Stream4_IRQHandler                  0x080002ff   Thumb Code     0  startup_stm32h723xx.o(.text)
    DMA1_Stream5_IRQHandler                  0x080002ff   Thumb Code     0  startup_stm32h723xx.o(.text)
    DMA1_Stream6_IRQHandler                  0x080002ff   Thumb Code     0  startup_stm32h723xx.o(.text)
    DMA1_Stream7_IRQHandler                  0x080002ff   Thumb Code     0  startup_stm32h723xx.o(.text)
    DMA2D_IRQHandler                         0x080002ff   Thumb Code     0  startup_stm32h723xx.o(.text)
    DMA2_Stream1_IRQHandler                  0x080002ff   Thumb Code     0  startup_stm32h723xx.o(.text)
    DMA2_Stream2_IRQHandler                  0x080002ff   Thumb Code     0  startup_stm32h723xx.o(.text)
    DMA2_Stream3_IRQHandler                  0x080002ff   Thumb Code     0  startup_stm32h723xx.o(.text)
    DMA2_Stream4_IRQHandler                  0x080002ff   Thumb Code     0  startup_stm32h723xx.o(.text)
    DMA2_Stream5_IRQHandler                  0x080002ff   Thumb Code     0  startup_stm32h723xx.o(.text)
    DMA2_Stream6_IRQHandler                  0x080002ff   Thumb Code     0  startup_stm32h723xx.o(.text)
    DMA2_Stream7_IRQHandler                  0x080002ff   Thumb Code     0  startup_stm32h723xx.o(.text)
    DMAMUX1_OVR_IRQHandler                   0x080002ff   Thumb Code     0  startup_stm32h723xx.o(.text)
    DMAMUX2_OVR_IRQHandler                   0x080002ff   Thumb Code     0  startup_stm32h723xx.o(.text)
    DTS_IRQHandler                           0x080002ff   Thumb Code     0  startup_stm32h723xx.o(.text)
    ECC_IRQHandler                           0x080002ff   Thumb Code     0  startup_stm32h723xx.o(.text)
    ETH_IRQHandler                           0x080002ff   Thumb Code     0  startup_stm32h723xx.o(.text)
    ETH_WKUP_IRQHandler                      0x080002ff   Thumb Code     0  startup_stm32h723xx.o(.text)
    EXTI0_IRQHandler                         0x080002ff   Thumb Code     0  startup_stm32h723xx.o(.text)
    EXTI15_10_IRQHandler                     0x080002ff   Thumb Code     0  startup_stm32h723xx.o(.text)
    EXTI1_IRQHandler                         0x080002ff   Thumb Code     0  startup_stm32h723xx.o(.text)
    EXTI2_IRQHandler                         0x080002ff   Thumb Code     0  startup_stm32h723xx.o(.text)
    EXTI3_IRQHandler                         0x080002ff   Thumb Code     0  startup_stm32h723xx.o(.text)
    EXTI4_IRQHandler                         0x080002ff   Thumb Code     0  startup_stm32h723xx.o(.text)
    EXTI9_5_IRQHandler                       0x080002ff   Thumb Code     0  startup_stm32h723xx.o(.text)
    FDCAN_CAL_IRQHandler                     0x080002ff   Thumb Code     0  startup_stm32h723xx.o(.text)
    FLASH_IRQHandler                         0x080002ff   Thumb Code     0  startup_stm32h723xx.o(.text)
    FMAC_IRQHandler                          0x080002ff   Thumb Code     0  startup_stm32h723xx.o(.text)
    FMC_IRQHandler                           0x080002ff   Thumb Code     0  startup_stm32h723xx.o(.text)
    FPU_IRQHandler                           0x080002ff   Thumb Code     0  startup_stm32h723xx.o(.text)
    HSEM1_IRQHandler                         0x080002ff   Thumb Code     0  startup_stm32h723xx.o(.text)
    I2C1_ER_IRQHandler                       0x080002ff   Thumb Code     0  startup_stm32h723xx.o(.text)
    I2C1_EV_IRQHandler                       0x080002ff   Thumb Code     0  startup_stm32h723xx.o(.text)
    I2C2_ER_IRQHandler                       0x080002ff   Thumb Code     0  startup_stm32h723xx.o(.text)
    I2C2_EV_IRQHandler                       0x080002ff   Thumb Code     0  startup_stm32h723xx.o(.text)
    I2C3_ER_IRQHandler                       0x080002ff   Thumb Code     0  startup_stm32h723xx.o(.text)
    I2C3_EV_IRQHandler                       0x080002ff   Thumb Code     0  startup_stm32h723xx.o(.text)
    I2C4_ER_IRQHandler                       0x080002ff   Thumb Code     0  startup_stm32h723xx.o(.text)
    I2C4_EV_IRQHandler                       0x080002ff   Thumb Code     0  startup_stm32h723xx.o(.text)
    I2C5_ER_IRQHandler                       0x080002ff   Thumb Code     0  startup_stm32h723xx.o(.text)
    I2C5_EV_IRQHandler                       0x080002ff   Thumb Code     0  startup_stm32h723xx.o(.text)
    LPTIM1_IRQHandler                        0x080002ff   Thumb Code     0  startup_stm32h723xx.o(.text)
    LPTIM2_IRQHandler                        0x080002ff   Thumb Code     0  startup_stm32h723xx.o(.text)
    LPTIM3_IRQHandler                        0x080002ff   Thumb Code     0  startup_stm32h723xx.o(.text)
    LPTIM4_IRQHandler                        0x080002ff   Thumb Code     0  startup_stm32h723xx.o(.text)
    LPTIM5_IRQHandler                        0x080002ff   Thumb Code     0  startup_stm32h723xx.o(.text)
    LPUART1_IRQHandler                       0x080002ff   Thumb Code     0  startup_stm32h723xx.o(.text)
    LTDC_ER_IRQHandler                       0x080002ff   Thumb Code     0  startup_stm32h723xx.o(.text)
    LTDC_IRQHandler                          0x080002ff   Thumb Code     0  startup_stm32h723xx.o(.text)
    MDIOS_IRQHandler                         0x080002ff   Thumb Code     0  startup_stm32h723xx.o(.text)
    MDIOS_WKUP_IRQHandler                    0x080002ff   Thumb Code     0  startup_stm32h723xx.o(.text)
    MDMA_IRQHandler                          0x080002ff   Thumb Code     0  startup_stm32h723xx.o(.text)
    OCTOSPI1_IRQHandler                      0x080002ff   Thumb Code     0  startup_stm32h723xx.o(.text)
    OCTOSPI2_IRQHandler                      0x080002ff   Thumb Code     0  startup_stm32h723xx.o(.text)
    OTG_HS_EP1_IN_IRQHandler                 0x080002ff   Thumb Code     0  startup_stm32h723xx.o(.text)
    OTG_HS_EP1_OUT_IRQHandler                0x080002ff   Thumb Code     0  startup_stm32h723xx.o(.text)
    OTG_HS_WKUP_IRQHandler                   0x080002ff   Thumb Code     0  startup_stm32h723xx.o(.text)
    PVD_AVD_IRQHandler                       0x080002ff   Thumb Code     0  startup_stm32h723xx.o(.text)
    RCC_IRQHandler                           0x080002ff   Thumb Code     0  startup_stm32h723xx.o(.text)
    RNG_IRQHandler                           0x080002ff   Thumb Code     0  startup_stm32h723xx.o(.text)
    RTC_Alarm_IRQHandler                     0x080002ff   Thumb Code     0  startup_stm32h723xx.o(.text)
    RTC_WKUP_IRQHandler                      0x080002ff   Thumb Code     0  startup_stm32h723xx.o(.text)
    SAI1_IRQHandler                          0x080002ff   Thumb Code     0  startup_stm32h723xx.o(.text)
    SAI4_IRQHandler                          0x080002ff   Thumb Code     0  startup_stm32h723xx.o(.text)
    SDMMC1_IRQHandler                        0x080002ff   Thumb Code     0  startup_stm32h723xx.o(.text)
    SDMMC2_IRQHandler                        0x080002ff   Thumb Code     0  startup_stm32h723xx.o(.text)
    SPDIF_RX_IRQHandler                      0x080002ff   Thumb Code     0  startup_stm32h723xx.o(.text)
    SPI1_IRQHandler                          0x080002ff   Thumb Code     0  startup_stm32h723xx.o(.text)
    SPI3_IRQHandler                          0x080002ff   Thumb Code     0  startup_stm32h723xx.o(.text)
    SPI4_IRQHandler                          0x080002ff   Thumb Code     0  startup_stm32h723xx.o(.text)
    SPI5_IRQHandler                          0x080002ff   Thumb Code     0  startup_stm32h723xx.o(.text)
    SPI6_IRQHandler                          0x080002ff   Thumb Code     0  startup_stm32h723xx.o(.text)
    SWPMI1_IRQHandler                        0x080002ff   Thumb Code     0  startup_stm32h723xx.o(.text)
    TAMP_STAMP_IRQHandler                    0x080002ff   Thumb Code     0  startup_stm32h723xx.o(.text)
    TIM15_IRQHandler                         0x080002ff   Thumb Code     0  startup_stm32h723xx.o(.text)
    TIM16_IRQHandler                         0x080002ff   Thumb Code     0  startup_stm32h723xx.o(.text)
    TIM17_IRQHandler                         0x080002ff   Thumb Code     0  startup_stm32h723xx.o(.text)
    TIM1_BRK_IRQHandler                      0x080002ff   Thumb Code     0  startup_stm32h723xx.o(.text)
    TIM1_CC_IRQHandler                       0x080002ff   Thumb Code     0  startup_stm32h723xx.o(.text)
    TIM1_TRG_COM_IRQHandler                  0x080002ff   Thumb Code     0  startup_stm32h723xx.o(.text)
    TIM1_UP_IRQHandler                       0x080002ff   Thumb Code     0  startup_stm32h723xx.o(.text)
    TIM23_IRQHandler                         0x080002ff   Thumb Code     0  startup_stm32h723xx.o(.text)
    TIM24_IRQHandler                         0x080002ff   Thumb Code     0  startup_stm32h723xx.o(.text)
    TIM2_IRQHandler                          0x080002ff   Thumb Code     0  startup_stm32h723xx.o(.text)
    TIM3_IRQHandler                          0x080002ff   Thumb Code     0  startup_stm32h723xx.o(.text)
    TIM4_IRQHandler                          0x080002ff   Thumb Code     0  startup_stm32h723xx.o(.text)
    TIM5_IRQHandler                          0x080002ff   Thumb Code     0  startup_stm32h723xx.o(.text)
    TIM6_DAC_IRQHandler                      0x080002ff   Thumb Code     0  startup_stm32h723xx.o(.text)
    TIM8_BRK_TIM12_IRQHandler                0x080002ff   Thumb Code     0  startup_stm32h723xx.o(.text)
    TIM8_CC_IRQHandler                       0x080002ff   Thumb Code     0  startup_stm32h723xx.o(.text)
    TIM8_TRG_COM_TIM14_IRQHandler            0x080002ff   Thumb Code     0  startup_stm32h723xx.o(.text)
    TIM8_UP_TIM13_IRQHandler                 0x080002ff   Thumb Code     0  startup_stm32h723xx.o(.text)
    UART4_IRQHandler                         0x080002ff   Thumb Code     0  startup_stm32h723xx.o(.text)
    UART8_IRQHandler                         0x080002ff   Thumb Code     0  startup_stm32h723xx.o(.text)
    UART9_IRQHandler                         0x080002ff   Thumb Code     0  startup_stm32h723xx.o(.text)
    USART6_IRQHandler                        0x080002ff   Thumb Code     0  startup_stm32h723xx.o(.text)
    WAKEUP_PIN_IRQHandler                    0x080002ff   Thumb Code     0  startup_stm32h723xx.o(.text)
    WWDG_IRQHandler                          0x080002ff   Thumb Code     0  startup_stm32h723xx.o(.text)
    __aeabi_uldivmod                         0x0800030d   Thumb Code    98  uldiv.o(.text)
    __rt_ctype_table                         0x08000371   Thumb Code     4  ctype_o.o(.text)
    toupper                                  0x08000379   Thumb Code    12  toupper.o(.text)
    ___aeabi_memcpy8$move                    0x08000385   Thumb Code     0  memmovea.o(.text)
    __aeabi_memcpy                           0x08000385   Thumb Code    64  memmovea.o(.text)
    __aeabi_memcpy4                          0x08000385   Thumb Code     0  memmovea.o(.text)
    __aeabi_memmove                          0x08000385   Thumb Code     0  memmovea.o(.text)
    __aeabi_memmove4                         0x08000385   Thumb Code     0  memmovea.o(.text)
    __aeabi_memmove8                         0x08000385   Thumb Code     0  memmovea.o(.text)
    __aeabi_memset                           0x080003c5   Thumb Code    14  memseta.o(.text)
    __aeabi_memset4                          0x080003c5   Thumb Code     0  memseta.o(.text)
    __aeabi_memset8                          0x080003c5   Thumb Code     0  memseta.o(.text)
    __aeabi_memclr                           0x080003d3   Thumb Code     4  memseta.o(.text)
    __aeabi_memclr4                          0x080003d3   Thumb Code     0  memseta.o(.text)
    __aeabi_memclr8                          0x080003d3   Thumb Code     0  memseta.o(.text)
    _memset$wrapper                          0x080003d7   Thumb Code    18  memseta.o(.text)
    strlen                                   0x080003e9   Thumb Code    14  strlen.o(.text)
    strcmp                                   0x080003f7   Thumb Code    28  strcmp.o(.text)
    strcpy                                   0x08000413   Thumb Code    18  strcpy.o(.text)
    __aeabi_llsl                             0x08000425   Thumb Code    30  llshl.o(.text)
    _ll_shift_l                              0x08000425   Thumb Code     0  llshl.o(.text)
    __aeabi_llsr                             0x08000443   Thumb Code    32  llushr.o(.text)
    _ll_ushift_r                             0x08000443   Thumb Code     0  llushr.o(.text)
    __I$use$fp                               0x08000463   Thumb Code     0  iusefp.o(.text)
    __scatterload                            0x08000465   Thumb Code    38  init.o(.text)
    __scatterload_rt2                        0x08000465   Thumb Code     0  init.o(.text)
    __decompress                             0x08000495   Thumb Code     0  __dczerorl2.o(.text)
    __decompress1                            0x08000495   Thumb Code    86  __dczerorl2.o(.text)
    BMI088_Calibrate_IMU                     0x080008d1   Thumb Code  1756  bmi088.o(.text.BMI088_Calibrate_IMU)
    BMI088_Read_All                          0x08001419   Thumb Code   820  bmi088.o(.text.BMI088_Read_All)
    BMI088_Register                          0x08001751   Thumb Code   364  bmi088.o(.text.BMI088_Register)
    BusFault_Handler                         0x08001a29   Thumb Code     4  stm32h7xx_it.o(.text.BusFault_Handler)
    Buzzer_Play                              0x08001a31   Thumb Code    72  buzzer.o(.text.Buzzer_Play)
    Buzzer_Register                          0x08001a79   Thumb Code   132  buzzer.o(.text.Buzzer_Register)
    Buzzer_Silence                           0x08001b01   Thumb Code    24  buzzer.o(.text.Buzzer_Silence)
    Buzzer_Task                              0x08001b21   Thumb Code   150  buzzer.o(.text.Buzzer_Task)
    Buzzer_Task_Init                         0x08001bb9   Thumb Code    86  daemon_task.o(.text.Buzzer_Task_Init)
    CAN_Register                             0x08001db1   Thumb Code   226  bsp_can.o(.text.CAN_Register)
    CAN_Transmit                             0x08001f81   Thumb Code   184  bsp_can.o(.text.CAN_Transmit)
    CDC_SendFeed                             0x080021b9   Thumb Code    26  serial.o(.text.CDC_SendFeed)
    CDC_Transmit_HS                          0x080021f1   Thumb Code    96  usbd_cdc_if.o(.text.CDC_Transmit_HS)
    Chassis_Cmd_Trans                        0x08002251   Thumb Code   292  control_task.o(.text.Chassis_Cmd_Trans)
    Chassis_Ctrl_Remote                      0x08002381   Thumb Code   376  chassis.o(.text.Chassis_Ctrl_Remote)
    Chassis_Enable                           0x08002501   Thumb Code    50  chassis.o(.text.Chassis_Enable)
    Chassis_Get_Omega_Follow                 0x08002539   Thumb Code   304  chassis.o(.text.Chassis_Get_Omega_Follow)
    Chassis_Get_Omega_Ref                    0x08002681   Thumb Code   152  chassis.o(.text.Chassis_Get_Omega_Ref)
    Chassis_Init                             0x08002731   Thumb Code    70  chassis.o(.text.Chassis_Init)
    Chassis_Power_Init                       0x08002819   Thumb Code   122  supercap.o(.text.Chassis_Power_Init)
    Chassis_Stop                             0x08002899   Thumb Code    50  chassis.o(.text.Chassis_Stop)
    Chassis_Task_Init                        0x08002909   Thumb Code    86  chassis_task.o(.text.Chassis_Task_Init)
    Choose_VPC_Type                          0x080029a1   Thumb Code   330  vpc.o(.text.Choose_VPC_Type)
    Climbing_Hill                            0x08002af1   Thumb Code    18  gimbal.o(.text.Climbing_Hill)
    Consume_CDC_Cache                        0x08002b09   Thumb Code   100  vpc.o(.text.Consume_CDC_Cache)
    Control_Task_Init                        0x08002bd9   Thumb Code    86  control_task.o(.text.Control_Task_Init)
    Cross3d                                  0x08002c31   Thumb Code   114  user_lib.o(.text.Cross3d)
    DJI_Motor_Control                        0x08002ca9   Thumb Code   900  dji_motor.o(.text.DJI_Motor_Control)
    DJI_Motor_Enable                         0x08003031   Thumb Code    16  dji_motor.o(.text.DJI_Motor_Enable)
    DJI_Motor_Error_Detection                0x08003041   Thumb Code     8  dji_motor.o(.text.DJI_Motor_Error_Detection)
    DJI_Motor_Init                           0x08003049   Thumb Code   256  dji_motor.o(.text.DJI_Motor_Init)
    DJI_Motor_Set_Ref                        0x08003191   Thumb Code    18  dji_motor.o(.text.DJI_Motor_Set_Ref)
    DJI_Motor_Stop                           0x080031a9   Thumb Code    16  dji_motor.o(.text.DJI_Motor_Stop)
    DMA1_Stream0_IRQHandler                  0x080031b9   Thumb Code    16  stm32h7xx_it.o(.text.DMA1_Stream0_IRQHandler)
    DMA1_Stream1_IRQHandler                  0x080031c9   Thumb Code    16  stm32h7xx_it.o(.text.DMA1_Stream1_IRQHandler)
    DMA1_Stream2_IRQHandler                  0x080031d9   Thumb Code    16  stm32h7xx_it.o(.text.DMA1_Stream2_IRQHandler)
    DMA1_Stream3_IRQHandler                  0x080031e9   Thumb Code    16  stm32h7xx_it.o(.text.DMA1_Stream3_IRQHandler)
    DMA2_Stream0_IRQHandler                  0x080031f9   Thumb Code    16  stm32h7xx_it.o(.text.DMA2_Stream0_IRQHandler)
    DM_DM124_Ctrl                            0x08003c89   Thumb Code    96  dm_motor.o(.text.DM_DM124_Ctrl)
    DM_MIT_Ctrl                              0x08003cf1   Thumb Code   316  dm_motor.o(.text.DM_MIT_Ctrl)
    DM_Motor_Control                         0x08003e41   Thumb Code   888  dm_motor.o(.text.DM_Motor_Control)
    DM_Motor_DISABLE                         0x080041c1   Thumb Code    82  dm_motor.o(.text.DM_Motor_DISABLE)
    DM_Motor_ENABLE                          0x08004359   Thumb Code    82  dm_motor.o(.text.DM_Motor_ENABLE)
    DM_Motor_Init                            0x080043b1   Thumb Code   316  dm_motor.o(.text.DM_Motor_Init)
    DM_Motor_SetTar                          0x08004511   Thumb Code    18  dm_motor.o(.text.DM_Motor_SetTar)
    DM_Motor_Start                           0x08004561   Thumb Code    80  dm_motor.o(.text.DM_Motor_Start)
    DM_Motor_Stop                            0x080045b1   Thumb Code    80  dm_motor.o(.text.DM_Motor_Stop)
    DM_Pos_Speed_Ctrl                        0x08004601   Thumb Code   148  dm_motor.o(.text.DM_Pos_Speed_Ctrl)
    DM_Speed_Ctrl                            0x08004699   Thumb Code    92  dm_motor.o(.text.DM_Speed_Ctrl)
    DWT_Delay                                0x08004761   Thumb Code    88  bsp_dwt.o(.text.DWT_Delay)
    DWT_GetDeltaT                            0x080047b9   Thumb Code    76  bsp_dwt.o(.text.DWT_GetDeltaT)
    DWT_GetTimeline_ms                       0x08004809   Thumb Code    68  bsp_dwt.o(.text.DWT_GetTimeline_ms)
    DWT_GetTimeline_s                        0x08004851   Thumb Code    72  bsp_dwt.o(.text.DWT_GetTimeline_s)
    DWT_Init                                 0x080048a1   Thumb Code   142  bsp_dwt.o(.text.DWT_Init)
    DebugMon_Handler                         0x08004a31   Thumb Code     2  stm32h7xx_it.o(.text.DebugMon_Handler)
    Dot3d                                    0x08004cb1   Thumb Code    50  user_lib.o(.text.Dot3d)
    Error_Handler                            0x08004f69   Thumb Code    14  main.o(.text.Error_Handler)
    ExitRun0Mode                             0x08004f79   Thumb Code    40  system_stm32h7xx.o(.text.ExitRun0Mode)
    FDCAN1_IT0_IRQHandler                    0x08004fa1   Thumb Code    16  stm32h7xx_it.o(.text.FDCAN1_IT0_IRQHandler)
    FDCAN1_IT1_IRQHandler                    0x08004fb1   Thumb Code    16  stm32h7xx_it.o(.text.FDCAN1_IT1_IRQHandler)
    FDCAN2_IT0_IRQHandler                    0x08004fc1   Thumb Code    16  stm32h7xx_it.o(.text.FDCAN2_IT0_IRQHandler)
    FDCAN2_IT1_IRQHandler                    0x08004fd1   Thumb Code    16  stm32h7xx_it.o(.text.FDCAN2_IT1_IRQHandler)
    FDCAN3_IT0_IRQHandler                    0x08004fe1   Thumb Code    16  stm32h7xx_it.o(.text.FDCAN3_IT0_IRQHandler)
    FDCAN3_IT1_IRQHandler                    0x08004ff1   Thumb Code    16  stm32h7xx_it.o(.text.FDCAN3_IT1_IRQHandler)
    GPIO_Register                            0x08005439   Thumb Code   108  bsp_gpio.o(.text.GPIO_Register)
    Get_CRC16_Check_Sum                      0x080054a9   Thumb Code   102  crc.o(.text.Get_CRC16_Check_Sum)
    Get_CRC8_Check_Sum                       0x08005511   Thumb Code    68  crc.o(.text.Get_CRC8_Check_Sum)
    Gimbal_Control_Remote                    0x080055b9   Thumb Code  4732  gimbal.o(.text.Gimbal_Control_Remote)
    Gimbal_Disable                           0x08006851   Thumb Code    46  gimbal.o(.text.Gimbal_Disable)
    Gimbal_Enable                            0x08006881   Thumb Code    46  gimbal.o(.text.Gimbal_Enable)
    Gimbal_Init                              0x080068b1   Thumb Code   120  gimbal.o(.text.Gimbal_Init)
    Gimbal_Stop                              0x08006929   Thumb Code    46  gimbal.o(.text.Gimbal_Stop)
    Gimbal_Task_Init                         0x080069e1   Thumb Code    86  gimbal_task.o(.text.Gimbal_Task_Init)
    Gimbal_limit                             0x08006a39   Thumb Code    80  ramp.o(.text.Gimbal_limit)
    HAL_DMA_Abort                            0x08006a91   Thumb Code  2424  stm32h7xx_hal_dma.o(.text.HAL_DMA_Abort)
    HAL_DMA_Abort_IT                         0x08007409   Thumb Code  1706  stm32h7xx_hal_dma.o(.text.HAL_DMA_Abort_IT)
    HAL_DMA_DeInit                           0x08007ab9   Thumb Code  1148  stm32h7xx_hal_dma.o(.text.HAL_DMA_DeInit)
    HAL_DMA_GetError                         0x08007f39   Thumb Code    12  stm32h7xx_hal_dma.o(.text.HAL_DMA_GetError)
    HAL_DMA_IRQHandler                       0x08007f49   Thumb Code  4544  stm32h7xx_hal_dma.o(.text.HAL_DMA_IRQHandler)
    HAL_DMA_Init                             0x08009109   Thumb Code  2400  stm32h7xx_hal_dma.o(.text.HAL_DMA_Init)
    HAL_DMA_Start_IT                         0x08009a69   Thumb Code  1794  stm32h7xx_hal_dma.o(.text.HAL_DMA_Start_IT)
    HAL_Delay                                0x0800a171   Thumb Code    66  stm32h7xx_hal.o(.text.HAL_Delay)
    HAL_FDCAN_AbortTxRequest                 0x0800a1b9   Thumb Code    66  stm32h7xx_hal_fdcan.o(.text.HAL_FDCAN_AbortTxRequest)
    HAL_FDCAN_ActivateNotification           0x0800a201   Thumb Code   254  stm32h7xx_hal_fdcan.o(.text.HAL_FDCAN_ActivateNotification)
    HAL_FDCAN_AddMessageToTxFifoQ            0x0800a301   Thumb Code   202  stm32h7xx_hal_fdcan.o(.text.HAL_FDCAN_AddMessageToTxFifoQ)
    HAL_FDCAN_ClockCalibrationCallback       0x0800a3d1   Thumb Code    10  stm32h7xx_hal_fdcan.o(.text.HAL_FDCAN_ClockCalibrationCallback)
    HAL_FDCAN_ConfigFifoWatermark            0x0800a3e1   Thumb Code   168  stm32h7xx_hal_fdcan.o(.text.HAL_FDCAN_ConfigFifoWatermark)
    HAL_FDCAN_ConfigFilter                   0x0800a489   Thumb Code   278  stm32h7xx_hal_fdcan.o(.text.HAL_FDCAN_ConfigFilter)
    HAL_FDCAN_ConfigGlobalFilter             0x0800a5a1   Thumb Code    92  stm32h7xx_hal_fdcan.o(.text.HAL_FDCAN_ConfigGlobalFilter)
    HAL_FDCAN_ErrorCallback                  0x0800a601   Thumb Code     8  stm32h7xx_hal_fdcan.o(.text.HAL_FDCAN_ErrorCallback)
    HAL_FDCAN_ErrorStatusCallback            0x0800a609   Thumb Code    10  stm32h7xx_hal_fdcan.o(.text.HAL_FDCAN_ErrorStatusCallback)
    HAL_FDCAN_GetRxFifoFillLevel             0x0800a619   Thumb Code    52  stm32h7xx_hal_fdcan.o(.text.HAL_FDCAN_GetRxFifoFillLevel)
    HAL_FDCAN_GetRxMessage                   0x0800a651   Thumb Code   760  stm32h7xx_hal_fdcan.o(.text.HAL_FDCAN_GetRxMessage)
    HAL_FDCAN_GetTxFifoFreeLevel             0x0800a949   Thumb Code    24  stm32h7xx_hal_fdcan.o(.text.HAL_FDCAN_GetTxFifoFreeLevel)
    HAL_FDCAN_HighPriorityMessageCallback    0x0800a961   Thumb Code     8  stm32h7xx_hal_fdcan.o(.text.HAL_FDCAN_HighPriorityMessageCallback)
    HAL_FDCAN_IRQHandler                     0x0800a969   Thumb Code  1506  stm32h7xx_hal_fdcan.o(.text.HAL_FDCAN_IRQHandler)
    HAL_FDCAN_Init                           0x0800af51   Thumb Code   992  stm32h7xx_hal_fdcan.o(.text.HAL_FDCAN_Init)
    HAL_FDCAN_MspInit                        0x0800b331   Thumb Code   660  fdcan.o(.text.HAL_FDCAN_MspInit)
    HAL_FDCAN_RxBufferNewMessageCallback     0x0800b5c9   Thumb Code     8  stm32h7xx_hal_fdcan.o(.text.HAL_FDCAN_RxBufferNewMessageCallback)
    HAL_FDCAN_RxFifo0Callback                0x0800b5d1   Thumb Code    20  bsp_can.o(.text.HAL_FDCAN_RxFifo0Callback)
    HAL_FDCAN_RxFifo1Callback                0x0800b5e9   Thumb Code    20  bsp_can.o(.text.HAL_FDCAN_RxFifo1Callback)
    HAL_FDCAN_Start                          0x0800b601   Thumb Code    80  stm32h7xx_hal_fdcan.o(.text.HAL_FDCAN_Start)
    HAL_FDCAN_Stop                           0x0800b651   Thumb Code   234  stm32h7xx_hal_fdcan.o(.text.HAL_FDCAN_Stop)
    HAL_FDCAN_TT_GlobalTimeCallback          0x0800b741   Thumb Code    10  stm32h7xx_hal_fdcan.o(.text.HAL_FDCAN_TT_GlobalTimeCallback)
    HAL_FDCAN_TT_ScheduleSyncCallback        0x0800b751   Thumb Code    10  stm32h7xx_hal_fdcan.o(.text.HAL_FDCAN_TT_ScheduleSyncCallback)
    HAL_FDCAN_TT_StopWatchCallback           0x0800b761   Thumb Code    12  stm32h7xx_hal_fdcan.o(.text.HAL_FDCAN_TT_StopWatchCallback)
    HAL_FDCAN_TT_TimeMarkCallback            0x0800b771   Thumb Code    10  stm32h7xx_hal_fdcan.o(.text.HAL_FDCAN_TT_TimeMarkCallback)
    HAL_FDCAN_TimeoutOccurredCallback        0x0800b781   Thumb Code     8  stm32h7xx_hal_fdcan.o(.text.HAL_FDCAN_TimeoutOccurredCallback)
    HAL_FDCAN_TimestampWraparoundCallback    0x0800b789   Thumb Code     8  stm32h7xx_hal_fdcan.o(.text.HAL_FDCAN_TimestampWraparoundCallback)
    HAL_FDCAN_TxBufferAbortCallback          0x0800b791   Thumb Code    10  stm32h7xx_hal_fdcan.o(.text.HAL_FDCAN_TxBufferAbortCallback)
    HAL_FDCAN_TxBufferCompleteCallback       0x0800b7a1   Thumb Code    10  stm32h7xx_hal_fdcan.o(.text.HAL_FDCAN_TxBufferCompleteCallback)
    HAL_FDCAN_TxEventFifoCallback            0x0800b7b1   Thumb Code    10  stm32h7xx_hal_fdcan.o(.text.HAL_FDCAN_TxEventFifoCallback)
    HAL_FDCAN_TxFifoEmptyCallback            0x0800b7c1   Thumb Code     8  stm32h7xx_hal_fdcan.o(.text.HAL_FDCAN_TxFifoEmptyCallback)
    HAL_GPIO_DeInit                          0x0800b7c9   Thumb Code   554  stm32h7xx_hal_gpio.o(.text.HAL_GPIO_DeInit)
    HAL_GPIO_Init                            0x0800b9f9   Thumb Code   936  stm32h7xx_hal_gpio.o(.text.HAL_GPIO_Init)
    HAL_GPIO_ReadPin                         0x0800bda1   Thumb Code    46  stm32h7xx_hal_gpio.o(.text.HAL_GPIO_ReadPin)
    HAL_GPIO_WritePin                        0x0800bdd1   Thumb Code    46  stm32h7xx_hal_gpio.o(.text.HAL_GPIO_WritePin)
    HAL_GetTick                              0x0800be01   Thumb Code    12  stm32h7xx_hal.o(.text.HAL_GetTick)
    HAL_I2CEx_ConfigAnalogFilter             0x0800be11   Thumb Code   152  stm32h7xx_hal_i2c_ex.o(.text.HAL_I2CEx_ConfigAnalogFilter)
    HAL_I2CEx_ConfigDigitalFilter            0x0800bea9   Thumb Code   162  stm32h7xx_hal_i2c_ex.o(.text.HAL_I2CEx_ConfigDigitalFilter)
    HAL_I2C_Init                             0x0800bf51   Thumb Code   276  stm32h7xx_hal_i2c.o(.text.HAL_I2C_Init)
    HAL_I2C_MspInit                          0x0800c069   Thumb Code   170  i2c.o(.text.HAL_I2C_MspInit)
    HAL_IncTick                              0x0800c119   Thumb Code    26  stm32h7xx_hal.o(.text.HAL_IncTick)
    HAL_Init                                 0x0800c139   Thumb Code   122  stm32h7xx_hal.o(.text.HAL_Init)
    HAL_InitTick                             0x0800c1b9   Thumb Code   220  stm32h7xx_hal_timebase_tim.o(.text.HAL_InitTick)
    HAL_MspInit                              0x0800c299   Thumb Code    50  stm32h7xx_hal_msp.o(.text.HAL_MspInit)
    HAL_NVIC_DisableIRQ                      0x0800c2d1   Thumb Code    20  stm32h7xx_hal_cortex.o(.text.HAL_NVIC_DisableIRQ)
    HAL_NVIC_EnableIRQ                       0x0800c2e9   Thumb Code    20  stm32h7xx_hal_cortex.o(.text.HAL_NVIC_EnableIRQ)
    HAL_NVIC_SetPriority                     0x0800c301   Thumb Code    46  stm32h7xx_hal_cortex.o(.text.HAL_NVIC_SetPriority)
    HAL_NVIC_SetPriorityGrouping             0x0800c331   Thumb Code    16  stm32h7xx_hal_cortex.o(.text.HAL_NVIC_SetPriorityGrouping)
    HAL_PCDEx_ActivateLPM                    0x0800c341   Thumb Code    54  stm32h7xx_hal_pcd_ex.o(.text.HAL_PCDEx_ActivateLPM)
    HAL_PCDEx_LPM_Callback                   0x0800c379   Thumb Code    12  stm32h7xx_hal_pcd_ex.o(.text.HAL_PCDEx_LPM_Callback)
    HAL_PCDEx_SetRxFiFo                      0x0800c389   Thumb Code    24  stm32h7xx_hal_pcd_ex.o(.text.HAL_PCDEx_SetRxFiFo)
    HAL_PCDEx_SetTxFiFo                      0x0800c3a1   Thumb Code   156  stm32h7xx_hal_pcd_ex.o(.text.HAL_PCDEx_SetTxFiFo)
    HAL_PCD_ConnectCallback                  0x0800c441   Thumb Code    20  usbd_conf.o(.text.HAL_PCD_ConnectCallback)
    HAL_PCD_DataInStageCallback              0x0800c459   Thumb Code    38  usbd_conf.o(.text.HAL_PCD_DataInStageCallback)
    HAL_PCD_DataOutStageCallback             0x0800c481   Thumb Code    40  usbd_conf.o(.text.HAL_PCD_DataOutStageCallback)
    HAL_PCD_DisconnectCallback               0x0800c4a9   Thumb Code    20  usbd_conf.o(.text.HAL_PCD_DisconnectCallback)
    HAL_PCD_EP_Abort                         0x0800c4c1   Thumb Code    94  stm32h7xx_hal_pcd.o(.text.HAL_PCD_EP_Abort)
    HAL_PCD_EP_Close                         0x0800c521   Thumb Code   168  stm32h7xx_hal_pcd.o(.text.HAL_PCD_EP_Close)
    HAL_PCD_EP_ClrStall                      0x0800c5c9   Thumb Code   200  stm32h7xx_hal_pcd.o(.text.HAL_PCD_EP_ClrStall)
    HAL_PCD_EP_GetRxCount                    0x0800c691   Thumb Code    34  stm32h7xx_hal_pcd.o(.text.HAL_PCD_EP_GetRxCount)
    HAL_PCD_EP_Open                          0x0800c6b9   Thumb Code   238  stm32h7xx_hal_pcd.o(.text.HAL_PCD_EP_Open)
    HAL_PCD_EP_Receive                       0x0800c7a9   Thumb Code   108  stm32h7xx_hal_pcd.o(.text.HAL_PCD_EP_Receive)
    HAL_PCD_EP_SetStall                      0x0800c819   Thumb Code   222  stm32h7xx_hal_pcd.o(.text.HAL_PCD_EP_SetStall)
    HAL_PCD_EP_Transmit                      0x0800c8f9   Thumb Code   108  stm32h7xx_hal_pcd.o(.text.HAL_PCD_EP_Transmit)
    HAL_PCD_IRQHandler                       0x0800c969   Thumb Code  2186  stm32h7xx_hal_pcd.o(.text.HAL_PCD_IRQHandler)
    HAL_PCD_ISOINIncompleteCallback          0x0800d1f9   Thumb Code    28  usbd_conf.o(.text.HAL_PCD_ISOINIncompleteCallback)
    HAL_PCD_ISOOUTIncompleteCallback         0x0800d219   Thumb Code    28  usbd_conf.o(.text.HAL_PCD_ISOOUTIncompleteCallback)
    HAL_PCD_Init                             0x0800d239   Thumb Code   570  stm32h7xx_hal_pcd.o(.text.HAL_PCD_Init)
    HAL_PCD_MspInit                          0x0800d479   Thumb Code   198  usbd_conf.o(.text.HAL_PCD_MspInit)
    HAL_PCD_ResetCallback                    0x0800d541   Thumb Code    82  usbd_conf.o(.text.HAL_PCD_ResetCallback)
    HAL_PCD_ResumeCallback                   0x0800d599   Thumb Code    20  usbd_conf.o(.text.HAL_PCD_ResumeCallback)
    HAL_PCD_SOFCallback                      0x0800d5b1   Thumb Code    20  usbd_conf.o(.text.HAL_PCD_SOFCallback)
    HAL_PCD_SetAddress                       0x0800d5c9   Thumb Code    92  stm32h7xx_hal_pcd.o(.text.HAL_PCD_SetAddress)
    HAL_PCD_SetupStageCallback               0x0800d629   Thumb Code    24  usbd_conf.o(.text.HAL_PCD_SetupStageCallback)
    HAL_PCD_Start                            0x0800d641   Thumb Code   124  stm32h7xx_hal_pcd.o(.text.HAL_PCD_Start)
    HAL_PCD_SuspendCallback                  0x0800d6c1   Thumb Code    62  usbd_conf.o(.text.HAL_PCD_SuspendCallback)
    HAL_PWREx_ConfigSupply                   0x0800d701   Thumb Code   162  stm32h7xx_hal_pwr_ex.o(.text.HAL_PWREx_ConfigSupply)
    HAL_PWREx_EnableUSBVoltageDetector       0x0800d7a9   Thumb Code    18  stm32h7xx_hal_pwr_ex.o(.text.HAL_PWREx_EnableUSBVoltageDetector)
    HAL_RCCEx_GetD3PCLK1Freq                 0x0800d7c1   Thumb Code    38  stm32h7xx_hal_rcc_ex.o(.text.HAL_RCCEx_GetD3PCLK1Freq)
    HAL_RCCEx_GetPLL2ClockFreq               0x0800d7e9   Thumb Code   668  stm32h7xx_hal_rcc_ex.o(.text.HAL_RCCEx_GetPLL2ClockFreq)
    HAL_RCCEx_GetPLL3ClockFreq               0x0800da99   Thumb Code   668  stm32h7xx_hal_rcc_ex.o(.text.HAL_RCCEx_GetPLL3ClockFreq)
    HAL_RCCEx_PeriphCLKConfig                0x0800dd49   Thumb Code  4076  stm32h7xx_hal_rcc_ex.o(.text.HAL_RCCEx_PeriphCLKConfig)
    HAL_RCC_ClockConfig                      0x0800ed39   Thumb Code  1176  stm32h7xx_hal_rcc.o(.text.HAL_RCC_ClockConfig)
    HAL_RCC_GetClockConfig                   0x0800f1d1   Thumb Code   136  stm32h7xx_hal_rcc.o(.text.HAL_RCC_GetClockConfig)
    HAL_RCC_GetHCLKFreq                      0x0800f259   Thumb Code    86  stm32h7xx_hal_rcc.o(.text.HAL_RCC_GetHCLKFreq)
    HAL_RCC_GetPCLK1Freq                     0x0800f2b1   Thumb Code    38  stm32h7xx_hal_rcc.o(.text.HAL_RCC_GetPCLK1Freq)
    HAL_RCC_GetPCLK2Freq                     0x0800f2d9   Thumb Code    38  stm32h7xx_hal_rcc.o(.text.HAL_RCC_GetPCLK2Freq)
    HAL_RCC_GetSysClockFreq                  0x0800f301   Thumb Code   768  stm32h7xx_hal_rcc.o(.text.HAL_RCC_GetSysClockFreq)
    HAL_RCC_OscConfig                        0x0800f611   Thumb Code  2592  stm32h7xx_hal_rcc.o(.text.HAL_RCC_OscConfig)
    HAL_RS485Ex_Init                         0x08010031   Thumb Code   208  stm32h7xx_hal_uart_ex.o(.text.HAL_RS485Ex_Init)
    HAL_SPI_ErrorCallback                    0x08010101   Thumb Code     8  stm32h7xx_hal_spi.o(.text.HAL_SPI_ErrorCallback)
    HAL_SPI_IRQHandler                       0x08010109   Thumb Code   912  stm32h7xx_hal_spi.o(.text.HAL_SPI_IRQHandler)
    HAL_SPI_Init                             0x08010499   Thumb Code   658  stm32h7xx_hal_spi.o(.text.HAL_SPI_Init)
    HAL_SPI_MspInit                          0x08010731   Thumb Code   430  spi.o(.text.HAL_SPI_MspInit)
    HAL_SPI_RxCpltCallback                   0x080108e1   Thumb Code   156  bsp_spi.o(.text.HAL_SPI_RxCpltCallback)
    HAL_SPI_SuspendCallback                  0x08010981   Thumb Code     8  stm32h7xx_hal_spi.o(.text.HAL_SPI_SuspendCallback)
    HAL_SPI_Transmit                         0x08010989   Thumb Code   996  stm32h7xx_hal_spi.o(.text.HAL_SPI_Transmit)
    HAL_SPI_TransmitReceive                  0x08010d71   Thumb Code  1796  stm32h7xx_hal_spi.o(.text.HAL_SPI_TransmitReceive)
    HAL_SPI_TransmitReceive_DMA              0x08011479   Thumb Code   926  stm32h7xx_hal_spi.o(.text.HAL_SPI_TransmitReceive_DMA)
    HAL_SPI_TransmitReceive_IT               0x08011819   Thumb Code   586  stm32h7xx_hal_spi.o(.text.HAL_SPI_TransmitReceive_IT)
    HAL_SPI_Transmit_DMA                     0x08011a69   Thumb Code   682  stm32h7xx_hal_spi.o(.text.HAL_SPI_Transmit_DMA)
    HAL_SPI_Transmit_IT                      0x08011d19   Thumb Code   362  stm32h7xx_hal_spi.o(.text.HAL_SPI_Transmit_IT)
    HAL_SPI_TxCpltCallback                   0x08011e89   Thumb Code     8  stm32h7xx_hal_spi.o(.text.HAL_SPI_TxCpltCallback)
    HAL_SPI_TxHalfCpltCallback               0x08011e91   Thumb Code     8  stm32h7xx_hal_spi.o(.text.HAL_SPI_TxHalfCpltCallback)
    HAL_SPI_TxRxCpltCallback                 0x08011e99   Thumb Code    16  bsp_spi.o(.text.HAL_SPI_TxRxCpltCallback)
    HAL_SPI_TxRxHalfCpltCallback             0x08011ea9   Thumb Code     8  stm32h7xx_hal_spi.o(.text.HAL_SPI_TxRxHalfCpltCallback)
    HAL_SYSCFG_AnalogSwitchConfig            0x08011eb1   Thumb Code    30  stm32h7xx_hal.o(.text.HAL_SYSCFG_AnalogSwitchConfig)
    HAL_TIMEx_Break2Callback                 0x08011ed1   Thumb Code     8  stm32h7xx_hal_tim_ex.o(.text.HAL_TIMEx_Break2Callback)
    HAL_TIMEx_BreakCallback                  0x08011ed9   Thumb Code     8  stm32h7xx_hal_tim_ex.o(.text.HAL_TIMEx_BreakCallback)
    HAL_TIMEx_CommutCallback                 0x08011ee1   Thumb Code     8  stm32h7xx_hal_tim_ex.o(.text.HAL_TIMEx_CommutCallback)
    HAL_TIMEx_ConfigBreakDeadTime            0x08011ee9   Thumb Code   302  stm32h7xx_hal_tim_ex.o(.text.HAL_TIMEx_ConfigBreakDeadTime)
    HAL_TIMEx_MasterConfigSynchronization    0x08012019   Thumb Code   380  stm32h7xx_hal_tim_ex.o(.text.HAL_TIMEx_MasterConfigSynchronization)
    HAL_TIM_Base_Init                        0x08012199   Thumb Code   168  stm32h7xx_hal_tim.o(.text.HAL_TIM_Base_Init)
    HAL_TIM_Base_MspInit                     0x08012241   Thumb Code     8  stm32h7xx_hal_tim.o(.text.HAL_TIM_Base_MspInit)
    HAL_TIM_Base_Start_IT                    0x08012249   Thumb Code   296  stm32h7xx_hal_tim.o(.text.HAL_TIM_Base_Start_IT)
    HAL_TIM_IC_CaptureCallback               0x08012371   Thumb Code     8  stm32h7xx_hal_tim.o(.text.HAL_TIM_IC_CaptureCallback)
    HAL_TIM_IRQHandler                       0x08012379   Thumb Code   592  stm32h7xx_hal_tim.o(.text.HAL_TIM_IRQHandler)
    HAL_TIM_MspPostInit                      0x080125c9   Thumb Code   344  tim.o(.text.HAL_TIM_MspPostInit)
    HAL_TIM_OC_DelayElapsedCallback          0x08012721   Thumb Code     8  stm32h7xx_hal_tim.o(.text.HAL_TIM_OC_DelayElapsedCallback)
    HAL_TIM_PWM_ConfigChannel                0x08012729   Thumb Code   432  stm32h7xx_hal_tim.o(.text.HAL_TIM_PWM_ConfigChannel)
    HAL_TIM_PWM_Init                         0x080128d9   Thumb Code   168  stm32h7xx_hal_tim.o(.text.HAL_TIM_PWM_Init)
    HAL_TIM_PWM_MspInit                      0x08012981   Thumb Code   206  tim.o(.text.HAL_TIM_PWM_MspInit)
    HAL_TIM_PWM_PulseFinishedCallback        0x08012a51   Thumb Code   158  bsp_pwm.o(.text.HAL_TIM_PWM_PulseFinishedCallback)
    HAL_TIM_PWM_Start                        0x08012af1   Thumb Code   674  stm32h7xx_hal_tim.o(.text.HAL_TIM_PWM_Start)
    HAL_TIM_PeriodElapsedCallback            0x08012d99   Thumb Code    34  main.o(.text.HAL_TIM_PeriodElapsedCallback)
    HAL_TIM_TriggerCallback                  0x08012dc1   Thumb Code     8  stm32h7xx_hal_tim.o(.text.HAL_TIM_TriggerCallback)
    HAL_UARTEx_DisableFifoMode               0x08012dc9   Thumb Code   124  stm32h7xx_hal_uart_ex.o(.text.HAL_UARTEx_DisableFifoMode)
    HAL_UARTEx_ReceiveToIdle_DMA             0x08012e49   Thumb Code   176  stm32h7xx_hal_uart_ex.o(.text.HAL_UARTEx_ReceiveToIdle_DMA)
    HAL_UARTEx_RxEventCallback               0x08012ef9   Thumb Code   928  bsp_usart.o(.text.HAL_UARTEx_RxEventCallback)
    HAL_UARTEx_RxFifoFullCallback            0x08013299   Thumb Code     8  stm32h7xx_hal_uart_ex.o(.text.HAL_UARTEx_RxFifoFullCallback)
    HAL_UARTEx_SetRxFifoThreshold            0x080132a1   Thumb Code   140  stm32h7xx_hal_uart_ex.o(.text.HAL_UARTEx_SetRxFifoThreshold)
    HAL_UARTEx_SetTxFifoThreshold            0x08013331   Thumb Code   140  stm32h7xx_hal_uart_ex.o(.text.HAL_UARTEx_SetTxFifoThreshold)
    HAL_UARTEx_TxFifoEmptyCallback           0x080133c1   Thumb Code     8  stm32h7xx_hal_uart_ex.o(.text.HAL_UARTEx_TxFifoEmptyCallback)
    HAL_UARTEx_WakeupCallback                0x080133c9   Thumb Code     8  stm32h7xx_hal_uart_ex.o(.text.HAL_UARTEx_WakeupCallback)
    HAL_UART_DMAStop                         0x080133d1   Thumb Code   288  stm32h7xx_hal_uart.o(.text.HAL_UART_DMAStop)
    HAL_UART_DeInit                          0x080134f1   Thumb Code   124  stm32h7xx_hal_uart.o(.text.HAL_UART_DeInit)
    HAL_UART_ErrorCallback                   0x08013571   Thumb Code  1120  bsp_usart.o(.text.HAL_UART_ErrorCallback)
    HAL_UART_IRQHandler                      0x080139d1   Thumb Code  1790  stm32h7xx_hal_uart.o(.text.HAL_UART_IRQHandler)
    HAL_UART_Init                            0x080140d1   Thumb Code   170  stm32h7xx_hal_uart.o(.text.HAL_UART_Init)
    HAL_UART_MspDeInit                       0x08014181   Thumb Code   438  usart.o(.text.HAL_UART_MspDeInit)
    HAL_UART_MspInit                         0x08014339   Thumb Code  1588  usart.o(.text.HAL_UART_MspInit)
    HAL_UART_RxCpltCallback                  0x08014971   Thumb Code     8  rs485.o(.text.HAL_UART_RxCpltCallback)
    HAL_UART_RxHalfCpltCallback              0x08014979   Thumb Code     8  stm32h7xx_hal_uart.o(.text.HAL_UART_RxHalfCpltCallback)
    HAL_UART_Transmit                        0x08014981   Thumb Code   312  stm32h7xx_hal_uart.o(.text.HAL_UART_Transmit)
    HAL_UART_Transmit_DMA                    0x08014ab9   Thumb Code   264  stm32h7xx_hal_uart.o(.text.HAL_UART_Transmit_DMA)
    HAL_UART_Transmit_IT                     0x08014bc1   Thumb Code   304  stm32h7xx_hal_uart.o(.text.HAL_UART_Transmit_IT)
    HAL_UART_TxCpltCallback                  0x08014cf1   Thumb Code    64  rs485.o(.text.HAL_UART_TxCpltCallback)
    HAL_UART_TxHalfCpltCallback              0x08014d31   Thumb Code     8  stm32h7xx_hal_uart.o(.text.HAL_UART_TxHalfCpltCallback)
    HardFault_Handler                        0x08014ec9   Thumb Code     4  stm32h7xx_it.o(.text.HardFault_Handler)
    IMU_QuaternionEKF_Init                   0x08015131   Thumb Code   334  quaternionekf.o(.text.IMU_QuaternionEKF_Init)
    IMU_QuaternionEKF_Update                 0x08015431   Thumb Code  1436  quaternionekf.o(.text.IMU_QuaternionEKF_Update)
    INS_Calculate                            0x08016049   Thumb Code   960  ins.o(.text.INS_Calculate)
    INS_Data_Update                          0x08016429   Thumb Code    26  ins.o(.text.INS_Data_Update)
    INS_Init                                 0x08016449   Thumb Code    76  ins.o(.text.INS_Init)
    INS_Task_Init                            0x08016539   Thumb Code   136  ins_task.o(.text.INS_Task_Init)
    Kalman_Filter_Init                       0x08016641   Thumb Code  1522  kalman_filter.o(.text.Kalman_Filter_Init)
    Kalman_Filter_Measure                    0x08016c39   Thumb Code    98  kalman_filter.o(.text.Kalman_Filter_Measure)
    Kalman_Filter_P_Update                   0x08016ca1   Thumb Code   128  kalman_filter.o(.text.Kalman_Filter_P_Update)
    Kalman_Filter_PminusUpdate               0x08016d21   Thumb Code   126  kalman_filter.o(.text.Kalman_Filter_PminusUpdate)
    Kalman_Filter_SetK                       0x08016da1   Thumb Code   250  kalman_filter.o(.text.Kalman_Filter_SetK)
    Kalman_Filter_Update                     0x08016ea1   Thumb Code   400  kalman_filter.o(.text.Kalman_Filter_Update)
    Kalman_Filter_xhatMinusUpdate            0x08017031   Thumb Code   162  kalman_filter.o(.text.Kalman_Filter_xhatMinusUpdate)
    Kalman_Filter_xhatUpdate                 0x080170d9   Thumb Code   172  kalman_filter.o(.text.Kalman_Filter_xhatUpdate)
    Kalman_One_Filter                        0x08017189   Thumb Code   152  kalman_one_filter.o(.text.Kalman_One_Filter)
    Kalman_One_Init                          0x08017221   Thumb Code    50  kalman_one_filter.o(.text.Kalman_One_Init)
    KeyboardCtrl                             0x08017259   Thumb Code  1588  control_task.o(.text.KeyboardCtrl)
    MX_DMA_Init                              0x08017891   Thumb Code   162  dma.o(.text.MX_DMA_Init)
    MX_FDCAN1_Init                           0x08017939   Thumb Code   126  fdcan.o(.text.MX_FDCAN1_Init)
    MX_FDCAN2_Init                           0x080179b9   Thumb Code   132  fdcan.o(.text.MX_FDCAN2_Init)
    MX_FDCAN3_Init                           0x08017a41   Thumb Code   132  fdcan.o(.text.MX_FDCAN3_Init)
    MX_FREERTOS_Init                         0x08017ac9   Thumb Code    36  freertos.o(.text.MX_FREERTOS_Init)
    MX_GPIO_Init                             0x08017af1   Thumb Code   344  gpio.o(.text.MX_GPIO_Init)
    MX_I2C2_Init                             0x08017c49   Thumb Code   118  i2c.o(.text.MX_I2C2_Init)
    MX_SPI2_Init                             0x08017cc1   Thumb Code   114  spi.o(.text.MX_SPI2_Init)
    MX_SPI6_Init                             0x08017d39   Thumb Code   114  spi.o(.text.MX_SPI6_Init)
    MX_TIM12_Init                            0x08017db1   Thumb Code   164  tim.o(.text.MX_TIM12_Init)
    MX_TIM1_Init                             0x08017e59   Thumb Code   260  tim.o(.text.MX_TIM1_Init)
    MX_TIM2_Init                             0x08017f61   Thumb Code   178  tim.o(.text.MX_TIM2_Init)
    MX_TIM3_Init                             0x08018019   Thumb Code   160  tim.o(.text.MX_TIM3_Init)
    MX_UART5_Init                            0x080180b9   Thumb Code   152  usart.o(.text.MX_UART5_Init)
    MX_UART7_Init                            0x08018151   Thumb Code   142  usart.o(.text.MX_UART7_Init)
    MX_USART10_UART_Init                     0x080181e1   Thumb Code   142  usart.o(.text.MX_USART10_UART_Init)
    MX_USART1_UART_Init                      0x08018271   Thumb Code   142  usart.o(.text.MX_USART1_UART_Init)
    MX_USART2_UART_Init                      0x08018301   Thumb Code   142  usart.o(.text.MX_USART2_UART_Init)
    MX_USART3_UART_Init                      0x08018391   Thumb Code   146  usart.o(.text.MX_USART3_UART_Init)
    MX_USB_DEVICE_Init                       0x08018429   Thumb Code   122  usb_device.o(.text.MX_USB_DEVICE_Init)
    Mecanum_Solve                            0x080184a9   Thumb Code   192  chassis.o(.text.Mecanum_Solve)
    MemManage_Handler                        0x08018579   Thumb Code     4  stm32h7xx_it.o(.text.MemManage_Handler)
    NMI_Handler                              0x08018819   Thumb Code     4  stm32h7xx_it.o(.text.NMI_Handler)
    NV_UnPack_Data_ROS2                      0x08018891   Thumb Code   116  serial.o(.text.NV_UnPack_Data_ROS2)
    Norm3d                                   0x08018909   Thumb Code   100  user_lib.o(.text.Norm3d)
    NormOf3d                                 0x08018971   Thumb Code    40  user_lib.o(.text.NormOf3d)
    Not_Climbing_Hill                        0x08018999   Thumb Code    18  gimbal.o(.text.Not_Climbing_Hill)
    OTG_HS_IRQHandler                        0x08018c49   Thumb Code    16  stm32h7xx_it.o(.text.OTG_HS_IRQHandler)
    PID_Increment                            0x08018fe9   Thumb Code   318  pid.o(.text.PID_Increment)
    PID_Init                                 0x08019129   Thumb Code    96  pid.o(.text.PID_Init)
    PID_Position                             0x08019189   Thumb Code   496  pid.o(.text.PID_Position)
    PWM_Register                             0x08019389   Thumb Code   176  bsp_pwm.o(.text.PWM_Register)
    PWM_Set_DutyRatio                        0x08019501   Thumb Code   344  bsp_pwm.o(.text.PWM_Set_DutyRatio)
    PWM_Set_Period                           0x08019659   Thumb Code    94  bsp_pwm.o(.text.PWM_Set_Period)
    PendSV_Handler                           0x080196c1   Thumb Code   100  port.o(.text.PendSV_Handler)
    Procotol_Task_Init                       0x08019761   Thumb Code   136  procotol_task.o(.text.Procotol_Task_Init)
    Publisher_Register                       0x080197e9   Thumb Code   150  message_center.o(.text.Publisher_Register)
    Ramp_data1                               0x08019c49   Thumb Code   208  ramp.o(.text.Ramp_data1)
    Ramp_data2                               0x08019d29   Thumb Code   208  ramp.o(.text.Ramp_data2)
    Ramp_data3                               0x08019e09   Thumb Code   208  ramp.o(.text.Ramp_data3)
    Ramp_data4                               0x08019ee9   Thumb Code   208  ramp.o(.text.Ramp_data4)
    RefereeSolve                             0x0801a031   Thumb Code  1182  referee.o(.text.RefereeSolve)
    Referee_Init                             0x0801a4f9   Thumb Code   104  referee.o(.text.Referee_Init)
    Remote_Control_Init                      0x0801a589   Thumb Code   102  remote_control.o(.text.Remote_Control_Init)
    Robot_Frame_Init                         0x0801a619   Thumb Code    16  robot_frame_init.o(.text.Robot_Frame_Init)
    SPI2_IRQHandler                          0x0801a629   Thumb Code    16  stm32h7xx_it.o(.text.SPI2_IRQHandler)
    SPI_Register                             0x0801a8b1   Thumb Code   134  bsp_spi.o(.text.SPI_Register)
    SPI_Set_Mode                             0x0801aa09   Thumb Code    68  bsp_spi.o(.text.SPI_Set_Mode)
    SPI_Transmit                             0x0801aa51   Thumb Code   124  bsp_spi.o(.text.SPI_Transmit)
    SPI_Transmit_Receive                     0x0801aad1   Thumb Code   172  bsp_spi.o(.text.SPI_Transmit_Receive)
    SVC_Handler                              0x0801acb1   Thumb Code    36  port.o(.text.SVC_Handler)
    Shoot_Control_Remote                     0x0801ad21   Thumb Code   318  shoot.o(.text.Shoot_Control_Remote)
    Shoot_Enable                             0x0801ae61   Thumb Code    64  shoot.o(.text.Shoot_Enable)
    Shoot_Init                               0x0801aea1   Thumb Code    92  shoot.o(.text.Shoot_Init)
    Shoot_Motor_Enable                       0x0801af01   Thumb Code    14  shoot_motor.o(.text.Shoot_Motor_Enable)
    Shoot_Motor_Init                         0x0801af11   Thumb Code   174  shoot_motor.o(.text.Shoot_Motor_Init)
    Shoot_Motor_Send                         0x0801b029   Thumb Code   204  shoot_motor.o(.text.Shoot_Motor_Send)
    Shoot_Motor_SetTar                       0x0801b119   Thumb Code    20  shoot_motor.o(.text.Shoot_Motor_SetTar)
    Shoot_Motor_Stop                         0x0801b131   Thumb Code    14  shoot_motor.o(.text.Shoot_Motor_Stop)
    Shoot_Set_All_Friction                   0x0801b141   Thumb Code    58  shoot.o(.text.Shoot_Set_All_Friction)
    Shoot_Stop                               0x0801b181   Thumb Code    64  shoot.o(.text.Shoot_Stop)
    Shoot_Task_Init                          0x0801b1f9   Thumb Code   136  shoot_task.o(.text.Shoot_Task_Init)
    Sqrt                                     0x0801b281   Thumb Code   184  user_lib.o(.text.Sqrt)
    StartDefaultTask                         0x0801b341   Thumb Code   112  freertos.o(.text.StartDefaultTask)
    Subscriber_Register                      0x0801b3b1   Thumb Code   146  message_center.o(.text.Subscriber_Register)
    SuperCap_Enable                          0x0801b449   Thumb Code    92  supercap.o(.text.SuperCap_Enable)
    Super_Power_Init                         0x0801b4a9   Thumb Code    26  supercap.o(.text.Super_Power_Init)
    Supervisor_Register                      0x0801b4c9   Thumb Code    94  defense_center.o(.text.Supervisor_Register)
    Supervisor_Reload                        0x0801b529   Thumb Code    14  defense_center.o(.text.Supervisor_Reload)
    SysTick_Handler                          0x0801b539   Thumb Code    30  cmsis_os2.o(.text.SysTick_Handler)
    SystemClock_Config                       0x0801b559   Thumb Code   208  main.o(.text.SystemClock_Config)
    SystemInit                               0x0801b629   Thumb Code   358  system_stm32h7xx.o(.text.SystemInit)
    TIM7_IRQHandler                          0x0801b791   Thumb Code    16  stm32h7xx_it.o(.text.TIM7_IRQHandler)
    TIM_Base_SetConfig                       0x0801b7a1   Thumb Code   452  stm32h7xx_hal_tim.o(.text.TIM_Base_SetConfig)
    TIM_CCxChannelCmd                        0x0801b969   Thumb Code    54  stm32h7xx_hal_tim.o(.text.TIM_CCxChannelCmd)
    TIM_OC2_SetConfig                        0x0801baf1   Thumb Code   364  stm32h7xx_hal_tim.o(.text.TIM_OC2_SetConfig)
    UART5_IRQHandler                         0x0801c059   Thumb Code    16  stm32h7xx_it.o(.text.UART5_IRQHandler)
    UART7_IRQHandler                         0x0801c069   Thumb Code    16  stm32h7xx_it.o(.text.UART7_IRQHandler)
    UART_AdvFeatureConfig                    0x0801c101   Thumb Code   328  stm32h7xx_hal_uart.o(.text.UART_AdvFeatureConfig)
    UART_CheckIdleState                      0x0801c249   Thumb Code   326  stm32h7xx_hal_uart.o(.text.UART_CheckIdleState)
    UART_SetConfig                           0x0801c741   Thumb Code  2638  stm32h7xx_hal_uart.o(.text.UART_SetConfig)
    UART_Start_Receive_DMA                   0x0801d191   Thumb Code   302  stm32h7xx_hal_uart.o(.text.UART_Start_Receive_DMA)
    UART_WaitOnFlagUntilTimeout              0x0801d581   Thumb Code   268  stm32h7xx_hal_uart.o(.text.UART_WaitOnFlagUntilTimeout)
    UI_Task_Init                             0x0801d829   Thumb Code   136  ui.o(.text.UI_Task_Init)
    USART10_IRQHandler                       0x0801d8b1   Thumb Code    16  stm32h7xx_it.o(.text.USART10_IRQHandler)
    USART1_IRQHandler                        0x0801d8c1   Thumb Code    16  stm32h7xx_it.o(.text.USART1_IRQHandler)
    USART2_IRQHandler                        0x0801d8d1   Thumb Code    16  stm32h7xx_it.o(.text.USART2_IRQHandler)
    USART3_IRQHandler                        0x0801d8e1   Thumb Code    16  stm32h7xx_it.o(.text.USART3_IRQHandler)
    USART_Register                           0x0801d8f1   Thumb Code   206  bsp_usart.o(.text.USART_Register)
    USART_Send                               0x0801d9c1   Thumb Code   110  bsp_usart.o(.text.USART_Send)
    USART_Service_Init                       0x0801da31   Thumb Code   482  bsp_usart.o(.text.USART_Service_Init)
    USBD_CDC_GetDeviceQualifierDescriptor    0x0801dee9   Thumb Code    22  usbd_cdc.o(.text.USBD_CDC_GetDeviceQualifierDescriptor)
    USBD_CDC_ReceivePacket                   0x0801e271   Thumb Code   126  usbd_cdc.o(.text.USBD_CDC_ReceivePacket)
    USBD_CDC_RegisterInterface               0x0801e2f1   Thumb Code    52  usbd_cdc.o(.text.USBD_CDC_RegisterInterface)
    USBD_CDC_SetRxBuffer                     0x0801e329   Thumb Code    60  usbd_cdc.o(.text.USBD_CDC_SetRxBuffer)
    USBD_CDC_SetTxBuffer                     0x0801e369   Thumb Code    70  usbd_cdc.o(.text.USBD_CDC_SetTxBuffer)
    USBD_CDC_TransmitPacket                  0x0801e581   Thumb Code   136  usbd_cdc.o(.text.USBD_CDC_TransmitPacket)
    USBD_ClrClassConfig                      0x0801e609   Thumb Code    50  usbd_core.o(.text.USBD_ClrClassConfig)
    USBD_CoreFindEP                          0x0801e681   Thumb Code    14  usbd_core.o(.text.USBD_CoreFindEP)
    USBD_CoreFindIF                          0x0801e691   Thumb Code    14  usbd_core.o(.text.USBD_CoreFindIF)
    USBD_CtlContinueRx                       0x0801e6a1   Thumb Code    30  usbd_ioreq.o(.text.USBD_CtlContinueRx)
    USBD_CtlContinueSendData                 0x0801e6c1   Thumb Code    30  usbd_ioreq.o(.text.USBD_CtlContinueSendData)
    USBD_CtlError                            0x0801e6e1   Thumb Code    28  usbd_ctlreq.o(.text.USBD_CtlError)
    USBD_CtlPrepareRx                        0x0801e701   Thumb Code    54  usbd_ioreq.o(.text.USBD_CtlPrepareRx)
    USBD_CtlReceiveStatus                    0x0801e739   Thumb Code    34  usbd_ioreq.o(.text.USBD_CtlReceiveStatus)
    USBD_CtlSendData                         0x0801e761   Thumb Code    50  usbd_ioreq.o(.text.USBD_CtlSendData)
    USBD_CtlSendStatus                       0x0801e799   Thumb Code    34  usbd_ioreq.o(.text.USBD_CtlSendStatus)
    USBD_GetEpDesc                           0x0801eb49   Thumb Code   118  usbd_core.o(.text.USBD_GetEpDesc)
    USBD_GetNextDesc                         0x0801ebf9   Thumb Code    38  usbd_core.o(.text.USBD_GetNextDesc)
    USBD_GetString                           0x0801ec89   Thumb Code   188  usbd_ctlreq.o(.text.USBD_GetString)
    USBD_Get_USB_Status                      0x0801ed49   Thumb Code    82  usbd_conf.o(.text.USBD_Get_USB_Status)
    USBD_HS_ConfigStrDescriptor              0x0801eda1   Thumb Code    78  usbd_desc.o(.text.USBD_HS_ConfigStrDescriptor)
    USBD_HS_DeviceDescriptor                 0x0801edf1   Thumb Code    26  usbd_desc.o(.text.USBD_HS_DeviceDescriptor)
    USBD_HS_InterfaceStrDescriptor           0x0801ee11   Thumb Code    78  usbd_desc.o(.text.USBD_HS_InterfaceStrDescriptor)
    USBD_HS_LangIDStrDescriptor              0x0801ee61   Thumb Code    26  usbd_desc.o(.text.USBD_HS_LangIDStrDescriptor)
    USBD_HS_ManufacturerStrDescriptor        0x0801ee81   Thumb Code    40  usbd_desc.o(.text.USBD_HS_ManufacturerStrDescriptor)
    USBD_HS_ProductStrDescriptor             0x0801eea9   Thumb Code    78  usbd_desc.o(.text.USBD_HS_ProductStrDescriptor)
    USBD_HS_SerialStrDescriptor              0x0801eef9   Thumb Code    32  usbd_desc.o(.text.USBD_HS_SerialStrDescriptor)
    USBD_Init                                0x0801ef19   Thumb Code   106  usbd_core.o(.text.USBD_Init)
    USBD_LL_ClearStallEP                     0x0801ef89   Thumb Code    58  usbd_conf.o(.text.USBD_LL_ClearStallEP)
    USBD_LL_CloseEP                          0x0801efc9   Thumb Code    58  usbd_conf.o(.text.USBD_LL_CloseEP)
    USBD_LL_DataInStage                      0x0801f009   Thumb Code   400  usbd_core.o(.text.USBD_LL_DataInStage)
    USBD_LL_DataOutStage                     0x0801f199   Thumb Code   434  usbd_core.o(.text.USBD_LL_DataOutStage)
    USBD_LL_DevConnected                     0x0801f351   Thumb Code    10  usbd_core.o(.text.USBD_LL_DevConnected)
    USBD_LL_DevDisconnected                  0x0801f361   Thumb Code    64  usbd_core.o(.text.USBD_LL_DevDisconnected)
    USBD_LL_GetRxDataSize                    0x0801f3a1   Thumb Code    28  usbd_conf.o(.text.USBD_LL_GetRxDataSize)
    USBD_LL_Init                             0x0801f3c1   Thumb Code   134  usbd_conf.o(.text.USBD_LL_Init)
    USBD_LL_IsStallEP                        0x0801f449   Thumb Code    90  usbd_conf.o(.text.USBD_LL_IsStallEP)
    USBD_LL_IsoINIncomplete                  0x0801f4a9   Thumb Code   110  usbd_core.o(.text.USBD_LL_IsoINIncomplete)
    USBD_LL_IsoOUTIncomplete                 0x0801f519   Thumb Code   110  usbd_core.o(.text.USBD_LL_IsoOUTIncomplete)
    USBD_LL_OpenEP                           0x0801f589   Thumb Code    74  usbd_conf.o(.text.USBD_LL_OpenEP)
    USBD_LL_PrepareReceive                   0x0801f5d9   Thumb Code    66  usbd_conf.o(.text.USBD_LL_PrepareReceive)
    USBD_LL_Reset                            0x0801f621   Thumb Code   156  usbd_core.o(.text.USBD_LL_Reset)
    USBD_LL_Resume                           0x0801f6c1   Thumb Code    36  usbd_core.o(.text.USBD_LL_Resume)
    USBD_LL_SOF                              0x0801f6e9   Thumb Code    62  usbd_core.o(.text.USBD_LL_SOF)
    USBD_LL_SetSpeed                         0x0801f729   Thumb Code    22  usbd_core.o(.text.USBD_LL_SetSpeed)
    USBD_LL_SetUSBAddress                    0x0801f741   Thumb Code    58  usbd_conf.o(.text.USBD_LL_SetUSBAddress)
    USBD_LL_SetupStage                       0x0801f781   Thumb Code   148  usbd_core.o(.text.USBD_LL_SetupStage)
    USBD_LL_StallEP                          0x0801f819   Thumb Code    58  usbd_conf.o(.text.USBD_LL_StallEP)
    USBD_LL_Start                            0x0801f859   Thumb Code    50  usbd_conf.o(.text.USBD_LL_Start)
    USBD_LL_Suspend                          0x0801f891   Thumb Code    44  usbd_core.o(.text.USBD_LL_Suspend)
    USBD_LL_Transmit                         0x0801f8c1   Thumb Code    66  usbd_conf.o(.text.USBD_LL_Transmit)
    USBD_ParseSetupRequest                   0x0801f909   Thumb Code    98  usbd_ctlreq.o(.text.USBD_ParseSetupRequest)
    USBD_RegisterClass                       0x0801f971   Thumb Code   114  usbd_core.o(.text.USBD_RegisterClass)
    USBD_RunTestMode                         0x0801f9e9   Thumb Code    10  usbd_core.o(.text.USBD_RunTestMode)
    USBD_SetClassConfig                      0x0801fa89   Thumb Code    54  usbd_core.o(.text.USBD_SetClassConfig)
    USBD_Start                               0x0801fc91   Thumb Code    16  usbd_core.o(.text.USBD_Start)
    USBD_StdDevReq                           0x0801fca1   Thumb Code   204  usbd_ctlreq.o(.text.USBD_StdDevReq)
    USBD_StdEPReq                            0x0801fd71   Thumb Code   940  usbd_ctlreq.o(.text.USBD_StdEPReq)
    USBD_StdItfReq                           0x08020121   Thumb Code   244  usbd_ctlreq.o(.text.USBD_StdItfReq)
    USBD_static_free                         0x08020219   Thumb Code     8  usbd_conf.o(.text.USBD_static_free)
    USBD_static_malloc                       0x08020221   Thumb Code    16  usbd_conf.o(.text.USBD_static_malloc)
    USB_ActivateEndpoint                     0x08020231   Thumb Code   222  stm32h7xx_ll_usb.o(.text.USB_ActivateEndpoint)
    USB_ActivateSetup                        0x08020311   Thumb Code    44  stm32h7xx_ll_usb.o(.text.USB_ActivateSetup)
    USB_CoreInit                             0x08020341   Thumb Code   236  stm32h7xx_ll_usb.o(.text.USB_CoreInit)
    USB_DeactivateEndpoint                   0x080204a9   Thumb Code   312  stm32h7xx_ll_usb.o(.text.USB_DeactivateEndpoint)
    USB_DevConnect                           0x080205e1   Thumb Code    42  stm32h7xx_ll_usb.o(.text.USB_DevConnect)
    USB_DevDisconnect                        0x08020611   Thumb Code    42  stm32h7xx_ll_usb.o(.text.USB_DevDisconnect)
    USB_DevInit                              0x08020641   Thumb Code   656  stm32h7xx_ll_usb.o(.text.USB_DevInit)
    USB_DisableGlobalInt                     0x080208d1   Thumb Code    20  stm32h7xx_ll_usb.o(.text.USB_DisableGlobalInt)
    USB_EP0_OutStart                         0x080208e9   Thumb Code   158  stm32h7xx_ll_usb.o(.text.USB_EP0_OutStart)
    USB_EPClearStall                         0x08020989   Thumb Code   160  stm32h7xx_ll_usb.o(.text.USB_EPClearStall)
    USB_EPSetStall                           0x08020a29   Thumb Code   168  stm32h7xx_ll_usb.o(.text.USB_EPSetStall)
    USB_EPStartXfer                          0x08020ad1   Thumb Code  1016  stm32h7xx_ll_usb.o(.text.USB_EPStartXfer)
    USB_EPStopXfer                           0x08020ec9   Thumb Code   284  stm32h7xx_ll_usb.o(.text.USB_EPStopXfer)
    USB_EnableGlobalInt                      0x08020fe9   Thumb Code    20  stm32h7xx_ll_usb.o(.text.USB_EnableGlobalInt)
    USB_FlushRxFifo                          0x08021001   Thumb Code   116  stm32h7xx_ll_usb.o(.text.USB_FlushRxFifo)
    USB_FlushTxFifo                          0x08021079   Thumb Code   122  stm32h7xx_ll_usb.o(.text.USB_FlushTxFifo)
    USB_GetDevSpeed                          0x080210f9   Thumb Code    76  stm32h7xx_ll_usb.o(.text.USB_GetDevSpeed)
    USB_GetMode                              0x08021149   Thumb Code    16  stm32h7xx_ll_usb.o(.text.USB_GetMode)
    USB_ReadDevAllInEpInterrupt              0x08021159   Thumb Code    36  stm32h7xx_ll_usb.o(.text.USB_ReadDevAllInEpInterrupt)
    USB_ReadDevAllOutEpInterrupt             0x08021181   Thumb Code    36  stm32h7xx_ll_usb.o(.text.USB_ReadDevAllOutEpInterrupt)
    USB_ReadDevInEPInterrupt                 0x080211a9   Thumb Code    78  stm32h7xx_ll_usb.o(.text.USB_ReadDevInEPInterrupt)
    USB_ReadDevOutEPInterrupt                0x080211f9   Thumb Code    46  stm32h7xx_ll_usb.o(.text.USB_ReadDevOutEPInterrupt)
    USB_ReadInterrupts                       0x08021229   Thumb Code    26  stm32h7xx_ll_usb.o(.text.USB_ReadInterrupts)
    USB_ReadPacket                           0x08021249   Thumb Code   180  stm32h7xx_ll_usb.o(.text.USB_ReadPacket)
    USB_SetCurrentMode                       0x08021301   Thumb Code   222  stm32h7xx_ll_usb.o(.text.USB_SetCurrentMode)
    USB_SetDevAddress                        0x080213e1   Thumb Code    54  stm32h7xx_ll_usb.o(.text.USB_SetDevAddress)
    USB_SetDevSpeed                          0x08021419   Thumb Code    34  stm32h7xx_ll_usb.o(.text.USB_SetDevSpeed)
    USB_SetTurnaroundTime                    0x08021441   Thumb Code   442  stm32h7xx_ll_usb.o(.text.USB_SetTurnaroundTime)
    USB_WritePacket                          0x08021601   Thumb Code   130  stm32h7xx_ll_usb.o(.text.USB_WritePacket)
    UsageFault_Handler                       0x08021689   Thumb Code     4  stm32h7xx_it.o(.text.UsageFault_Handler)
    VOFA_Display_2006_Current                0x08021691   Thumb Code    44  procotol.o(.text.VOFA_Display_2006_Current)
    VOFA_JustFloat                           0x080216c1   Thumb Code   146  vofa.o(.text.VOFA_JustFloat)
    VOFA_Register                            0x08021759   Thumb Code    40  vofa.o(.text.VOFA_Register)
    VOFA_Transmit                            0x08021781   Thumb Code    42  vofa.o(.text.VOFA_Transmit)
    VPC_UpdatePackets                        0x080217b1   Thumb Code   128  vpc.o(.text.VPC_UpdatePackets)
    VS_Pack_And_Send_Data_ROS2               0x08021831   Thumb Code   138  serial.o(.text.VS_Pack_And_Send_Data_ROS2)
    VS_UnPack_Data_ROS2                      0x080218c1   Thumb Code   126  serial.o(.text.VS_UnPack_Data_ROS2)
    Value_Limit                              0x08021941   Thumb Code    80  pid.o(.text.Value_Limit)
    Verify_CRC16_Check_Sum                   0x08021991   Thumb Code   124  crc.o(.text.Verify_CRC16_Check_Sum)
    Verify_CRC8_Check_Sum                    0x08021a11   Thumb Code    88  crc.o(.text.Verify_CRC8_Check_Sum)
    WS2812_Control                           0x08021a69   Thumb Code   132  ws2812.o(.text.WS2812_Control)
    WS2812_Register                          0x08021af1   Thumb Code    74  ws2812.o(.text.WS2812_Register)
    _ui_init_Infantry_group1_0               0x08021c89   Thumb Code   200  ui_infantry_group1_0.o(.text._ui_init_Infantry_group1_0)
    _ui_init_Infantry_group1_1               0x08021d51   Thumb Code   200  ui_infantry_group1_1.o(.text._ui_init_Infantry_group1_1)
    _ui_init_Infantry_group1_2               0x08021e19   Thumb Code   216  ui_infantry_group1_2.o(.text._ui_init_Infantry_group1_2)
    _ui_init_Infantry_group1_3               0x08021ef1   Thumb Code  2050  ui_infantry_group1_3.o(.text._ui_init_Infantry_group1_3)
    _ui_init_Infantry_group1_4               0x080226f9   Thumb Code  1070  ui_infantry_group1_4.o(.text._ui_init_Infantry_group1_4)
    _ui_init_Infantry_group1_5               0x08022b29   Thumb Code   392  ui_infantry_group1_5.o(.text._ui_init_Infantry_group1_5)
    _ui_init_Infantry_group2_0               0x08022cb1   Thumb Code  1708  ui_infantry_group2_0.o(.text._ui_init_Infantry_group2_0)
    _ui_remove_Infantry_group1_0             0x08023361   Thumb Code    58  ui_infantry_group1_0.o(.text._ui_remove_Infantry_group1_0)
    _ui_remove_Infantry_group1_1             0x080233a1   Thumb Code    58  ui_infantry_group1_1.o(.text._ui_remove_Infantry_group1_1)
    _ui_remove_Infantry_group1_2             0x080233e1   Thumb Code    58  ui_infantry_group1_2.o(.text._ui_remove_Infantry_group1_2)
    _ui_remove_Infantry_group1_3             0x08023421   Thumb Code   102  ui_infantry_group1_3.o(.text._ui_remove_Infantry_group1_3)
    _ui_remove_Infantry_group1_4             0x08023489   Thumb Code   102  ui_infantry_group1_4.o(.text._ui_remove_Infantry_group1_4)
    _ui_remove_Infantry_group1_5             0x080234f1   Thumb Code    58  ui_infantry_group1_5.o(.text._ui_remove_Infantry_group1_5)
    _ui_remove_Infantry_group2_0             0x08023531   Thumb Code   102  ui_infantry_group2_0.o(.text._ui_remove_Infantry_group2_0)
    _ui_update_Infantry_group2_0             0x08023599   Thumb Code   102  ui_infantry_group2_0.o(.text._ui_update_Infantry_group2_0)
    arm_mat_add_f32                          0x08023601   Thumb Code   190  arm_mat_add_f32.o(.text.arm_mat_add_f32)
    arm_mat_init_f32                         0x080236bf   Thumb Code     8  arm_mat_init_f32.o(.text.arm_mat_init_f32)
    arm_mat_inverse_f32                      0x080236c9   Thumb Code   716  arm_mat_inverse_f32.o(.text.arm_mat_inverse_f32)
    arm_mat_mult_f32                         0x08023995   Thumb Code   304  arm_mat_mult_f32.o(.text.arm_mat_mult_f32)
    arm_mat_sub_f32                          0x08023ac5   Thumb Code   190  arm_mat_sub_f32.o(.text.arm_mat_sub_f32)
    arm_mat_trans_f32                        0x08023b85   Thumb Code   180  arm_mat_trans_f32.o(.text.arm_mat_trans_f32)
    calc_crc16                               0x08023c39   Thumb Code   106  ui_interface.o(.text.calc_crc16)
    calc_crc8                                0x08023ca9   Thumb Code    70  ui_interface.o(.text.calc_crc8)
    chassis_power_control                    0x08023cf1   Thumb Code  2084  powerctrl.o(.text.chassis_power_control)
    float_to_uint                            0x08024531   Thumb Code    88  dm_motor.o(.text.float_to_uint)
    main                                     0x080245e1   Thumb Code   108  main.o(.text.main)
    osDelay                                  0x08024741   Thumb Code    52  cmsis_os2.o(.text.osDelay)
    osDelayUntil                             0x08024779   Thumb Code    88  cmsis_os2.o(.text.osDelayUntil)
    osKernelGetTickCount                     0x080247d1   Thumb Code    38  cmsis_os2.o(.text.osKernelGetTickCount)
    osKernelInitialize                       0x080247f9   Thumb Code    70  cmsis_os2.o(.text.osKernelInitialize)
    osKernelStart                            0x08024841   Thumb Code    82  cmsis_os2.o(.text.osKernelStart)
    osThreadFlagsSet                         0x08024899   Thumb Code   164  cmsis_os2.o(.text.osThreadFlagsSet)
    osThreadNew                              0x08024941   Thumb Code   346  cmsis_os2.o(.text.osThreadNew)
    osThreadResume                           0x08024aa1   Thumb Code    64  cmsis_os2.o(.text.osThreadResume)
    osThreadSuspend                          0x08024ae1   Thumb Code    64  cmsis_os2.o(.text.osThreadSuspend)
    pvPortMalloc                             0x08025a99   Thumb Code   492  heap_4.o(.text.pvPortMalloc)
    pxPortInitialiseStack                    0x08025c89   Thumb Code    94  port.o(.text.pxPortInitialiseStack)
    ui_init                                  0x08026109   Thumb Code    80  ui.o(.text.ui_init)
    ui_proc_5_frame                          0x08026159   Thumb Code   116  ui_interface.o(.text.ui_proc_5_frame)
    ui_proc_6_frame                          0x080261d1   Thumb Code   116  ui_interface.o(.text.ui_proc_6_frame)
    ui_proc_7_frame                          0x08026249   Thumb Code   116  ui_interface.o(.text.ui_proc_7_frame)
    ui_proc_string_frame                     0x080262c1   Thumb Code   146  ui_interface.o(.text.ui_proc_string_frame)
    ui_reinit                                0x08026359   Thumb Code   150  ui.o(.text.ui_reinit)
    uint_to_float                            0x080263f1   Thumb Code    82  dm_motor.o(.text.uint_to_float)
    update_shooter_ui                        0x08026449   Thumb Code   640  ui.o(.text.update_shooter_ui)
    uxListRemove                             0x080266d1   Thumb Code    72  list.o(.text.uxListRemove)
    uxTaskGetStackHighWaterMark              0x08026719   Thumb Code    56  tasks.o(.text.uxTaskGetStackHighWaterMark)
    vApplicationGetIdleTaskMemory            0x08026751   Thumb Code    42  cmsis_os2.o(.text.vApplicationGetIdleTaskMemory)
    vApplicationGetTimerTaskMemory           0x08026781   Thumb Code    44  cmsis_os2.o(.text.vApplicationGetTimerTaskMemory)
    vListInitialise                          0x080267b1   Thumb Code    46  list.o(.text.vListInitialise)
    vListInitialiseItem                      0x080267e1   Thumb Code    14  list.o(.text.vListInitialiseItem)
    vListInsert                              0x080267f1   Thumb Code   106  list.o(.text.vListInsert)
    vListInsertEnd                           0x08026861   Thumb Code    58  list.o(.text.vListInsertEnd)
    vPortEnterCritical                       0x080268b9   Thumb Code    86  port.o(.text.vPortEnterCritical)
    vPortExitCritical                        0x08026911   Thumb Code    74  port.o(.text.vPortExitCritical)
    vPortFree                                0x08026961   Thumb Code   206  heap_4.o(.text.vPortFree)
    vPortSetupTimerInterrupt                 0x08026a31   Thumb Code    68  port.o(.text.vPortSetupTimerInterrupt)
    vPortValidateInterruptPriority           0x08026a79   Thumb Code   132  port.o(.text.vPortValidateInterruptPriority)
    vQueueAddToRegistry                      0x08026b01   Thumb Code    82  queue.o(.text.vQueueAddToRegistry)
    vQueueWaitForMessageRestricted           0x08026b59   Thumb Code   100  queue.o(.text.vQueueWaitForMessageRestricted)
    vTaskDelay                               0x08026bc1   Thumb Code   110  tasks.o(.text.vTaskDelay)
    vTaskDelayUntil                          0x08026c31   Thumb Code   276  tasks.o(.text.vTaskDelayUntil)
    vTaskInternalSetTimeOutState             0x08026d49   Thumb Code    36  tasks.o(.text.vTaskInternalSetTimeOutState)
    vTaskMissedYield                         0x08026d71   Thumb Code    14  tasks.o(.text.vTaskMissedYield)
    vTaskPlaceOnEventList                    0x08026d81   Thumb Code    66  tasks.o(.text.vTaskPlaceOnEventList)
    vTaskPlaceOnEventListRestricted          0x08026dc9   Thumb Code    82  tasks.o(.text.vTaskPlaceOnEventListRestricted)
    vTaskResume                              0x08026e21   Thumb Code   214  tasks.o(.text.vTaskResume)
    vTaskStartScheduler                      0x08026ef9   Thumb Code   224  tasks.o(.text.vTaskStartScheduler)
    vTaskSuspend                             0x08026fd9   Thumb Code   296  tasks.o(.text.vTaskSuspend)
    vTaskSuspendAll                          0x08027101   Thumb Code    16  tasks.o(.text.vTaskSuspendAll)
    vTaskSwitchContext                       0x08027111   Thumb Code   198  tasks.o(.text.vTaskSwitchContext)
    xPortStartScheduler                      0x080271d9   Thumb Code   342  port.o(.text.xPortStartScheduler)
    xPortSysTickHandler                      0x08027331   Thumb Code    60  port.o(.text.xPortSysTickHandler)
    xQueueGenericCreateStatic                0x08027371   Thumb Code   270  queue.o(.text.xQueueGenericCreateStatic)
    xQueueGenericReset                       0x08027481   Thumb Code   186  queue.o(.text.xQueueGenericReset)
    xQueueGenericSend                        0x08027541   Thumb Code   556  queue.o(.text.xQueueGenericSend)
    xQueueGenericSendFromISR                 0x08027771   Thumb Code   332  queue.o(.text.xQueueGenericSendFromISR)
    xQueueReceive                            0x080278c1   Thumb Code   476  queue.o(.text.xQueueReceive)
    xTaskCheckForTimeOut                     0x08027aa1   Thumb Code   204  tasks.o(.text.xTaskCheckForTimeOut)
    xTaskCreate                              0x08027b71   Thumb Code   158  tasks.o(.text.xTaskCreate)
    xTaskCreateStatic                        0x08027c11   Thumb Code   206  tasks.o(.text.xTaskCreateStatic)
    xTaskGenericNotify                       0x08027ce1   Thumb Code   376  tasks.o(.text.xTaskGenericNotify)
    xTaskGenericNotifyFromISR                0x08027e59   Thumb Code   452  tasks.o(.text.xTaskGenericNotifyFromISR)
    xTaskGetSchedulerState                   0x08028021   Thumb Code    56  tasks.o(.text.xTaskGetSchedulerState)
    xTaskGetTickCount                        0x08028059   Thumb Code    20  tasks.o(.text.xTaskGetTickCount)
    xTaskGetTickCountFromISR                 0x08028071   Thumb Code    30  tasks.o(.text.xTaskGetTickCountFromISR)
    xTaskIncrementTick                       0x08028091   Thumb Code   452  tasks.o(.text.xTaskIncrementTick)
    xTaskPriorityDisinherit                  0x08028259   Thumb Code   236  tasks.o(.text.xTaskPriorityDisinherit)
    xTaskRemoveFromEventList                 0x08028349   Thumb Code   206  tasks.o(.text.xTaskRemoveFromEventList)
    xTaskResumeAll                           0x08028419   Thumb Code   390  tasks.o(.text.xTaskResumeAll)
    xTimerCreateTimerTask                    0x080285a1   Thumb Code   148  timers.o(.text.xTimerCreateTimerTask)
    xTimerGenericCommand                     0x08028639   Thumb Code   176  timers.o(.text.xTimerGenericCommand)
    __ARM_fpclassify                         0x080286e9   Thumb Code    48  fpclassify.o(i.__ARM_fpclassify)
    __ARM_fpclassifyf                        0x08028719   Thumb Code    38  fpclassifyf.o(i.__ARM_fpclassifyf)
    __hardfp_acosf                           0x08028741   Thumb Code   234  acosf.o(i.__hardfp_acosf)
    __hardfp_asinf                           0x08028859   Thumb Code   258  asinf.o(i.__hardfp_asinf)
    __hardfp_atan2f                          0x08028985   Thumb Code   594  atan2f.o(i.__hardfp_atan2f)
    __hardfp_cos                             0x08028c31   Thumb Code   158  cos.o(i.__hardfp_cos)
    __hardfp_cosf                            0x08028ce1   Thumb Code   280  cosf.o(i.__hardfp_cosf)
    __hardfp_sin                             0x08028e31   Thumb Code   158  sin.o(i.__hardfp_sin)
    __hardfp_sinf                            0x08028ee1   Thumb Code   344  sinf.o(i.__hardfp_sinf)
    __hardfp_sqrtf                           0x08029071   Thumb Code    58  sqrtf.o(i.__hardfp_sqrtf)
    __ieee754_rem_pio2                       0x080290b1   Thumb Code   646  rred.o(i.__ieee754_rem_pio2)
    __kernel_cos                             0x080293b9   Thumb Code   182  cos_i.o(i.__kernel_cos)
    __kernel_poly                            0x0802947d   Thumb Code   112  poly.o(i.__kernel_poly)
    __kernel_sin                             0x080294f1   Thumb Code   144  sin_i.o(i.__kernel_sin)
    __mathlib_dbl_invalid                    0x08029591   Thumb Code    10  dunder.o(i.__mathlib_dbl_invalid)
    __mathlib_dbl_underflow                  0x080295a9   Thumb Code    10  dunder.o(i.__mathlib_dbl_underflow)
    __mathlib_flt_infnan                     0x080295c1   Thumb Code     6  funder.o(i.__mathlib_flt_infnan)
    __mathlib_flt_infnan2                    0x080295c7   Thumb Code     6  funder.o(i.__mathlib_flt_infnan2)
    __mathlib_flt_invalid                    0x080295cd   Thumb Code    10  funder.o(i.__mathlib_flt_invalid)
    __mathlib_flt_underflow                  0x080295dd   Thumb Code    10  funder.o(i.__mathlib_flt_underflow)
    __mathlib_rredf2                         0x080295ed   Thumb Code   316  rredf.o(i.__mathlib_rredf2)
    __scatterload_copy                       0x08029741   Thumb Code    14  handlers.o(i.__scatterload_copy)
    __scatterload_null                       0x0802974f   Thumb Code     2  handlers.o(i.__scatterload_null)
    __scatterload_zeroinit                   0x08029751   Thumb Code    14  handlers.o(i.__scatterload_zeroinit)
    __set_errno                              0x08029761   Thumb Code     6  errno.o(i.__set_errno)
    fabs                                     0x0802976d   Thumb Code    24  fabs.o(i.fabs)
    free                                     0x08029785   Thumb Code    76  malloc.o(i.free)
    malloc                                   0x080297d5   Thumb Code    92  malloc.o(i.malloc)
    sqrtf                                    0x08029841   Thumb Code    62  sqrtf.o(i.sqrtf)
    __ctype_table                            0x0802987e   Data         129  ctype_o.o(.constdata)
    CRC8_TAB                                 0x08029bec   Data         256  crc.o(.rodata.CRC8_TAB)
    CRC8_TAB_UI                              0x08029cec   Data         256  ui_interface.o(.rodata.CRC8_TAB_UI)
    D1CorePrescTable                         0x08029dec   Data          16  system_stm32h7xx.o(.rodata.D1CorePrescTable)
    IMU_QuaternionEKF_F                      0x08029e14   Data         144  quaternionekf.o(.rodata.IMU_QuaternionEKF_F)
    Note_Freq                                0x08029ea4   Data         218  buzzer.o(.rodata.Note_Freq)
    StartUP_sound                            0x08029f7e   Data          17  buzzer.o(.rodata.StartUP_sound)
    UARTPrescTable                           0x08029fa0   Data          24  stm32h7xx_hal_uart.o(.rodata.UARTPrescTable)
    Warming_sound                            0x08029fb8   Data          36  buzzer.o(.rodata.Warming_sound)
    defaultTask_attributes                   0x08029fe4   Data          36  freertos.o(.rodata.defaultTask_attributes)
    gravity                                  0x0802a008   Data          12  ins.o(.rodata.gravity)
    wCRC_Table                               0x0802a1aa   Data         512  crc.o(.rodata.wCRC_Table)
    wCRC_Table_UI                            0x0802a3aa   Data         512  ui_interface.o(.rodata.wCRC_Table_UI)
    xb                                       0x0802a5ac   Data          12  ins.o(.rodata.xb)
    yb                                       0x0802a5b8   Data          12  ins.o(.rodata.yb)
    zb                                       0x0802a5c4   Data          12  ins.o(.rodata.zb)
    Region$$Table$$Base                      0x0802a5d0   Number         0  anon$$obj.o(Region$$Table)
    Region$$Table$$Limit                     0x0802a5f0   Number         0  anon$$obj.o(Region$$Table)
    __microlib_freelist                      0x24000000   Data           4  mvars.o(.data)
    __microlib_freelist_initialised          0x24000004   Data           4  mvars.o(.data)
    CRC_INIT                                 0x24000026   Data           2  crc.o(.data.CRC_INIT)
    Chassis_Follow_Flag                      0x24000028   Data           1  chassis.o(.data.Chassis_Follow_Flag)
    E_lower                                  0x2400002c   Data           4  powerctrl.o(.data.E_lower)
    E_upper                                  0x24000030   Data           4  powerctrl.o(.data.E_upper)
    Fire_Control                             0x24000034   Data           1  shoot.o(.data.Fire_Control)
    HS_Desc                                  0x24000038   Data          32  usbd_desc.o(.data.HS_Desc)
    IMU_QuaternionEKF_P                      0x24000058   Data         144  quaternionekf.o(.data.IMU_QuaternionEKF_P)
    SystemCoreClock                          0x240000e8   Data           4  system_stm32h7xx.o(.data.SystemCoreClock)
    SystemD2Clock                            0x240000ec   Data           4  system_stm32h7xx.o(.data.SystemD2Clock)
    USBD_CDC                                 0x240000f0   Data          56  usbd_cdc.o(.data.USBD_CDC)
    USBD_HS_DeviceDesc                       0x24000178   Data          18  usbd_desc.o(.data.USBD_HS_DeviceDesc)
    USBD_Interface_fops_HS                   0x2400018c   Data          20  usbd_cdc_if.o(.data.USBD_Interface_fops_HS)
    USBD_LangIDDesc                          0x240001a0   Data           4  usbd_desc.o(.data.USBD_LangIDDesc)
    USBD_StringSerial                        0x240001a4   Data          26  usbd_desc.o(.data.USBD_StringSerial)
    angle_pid_pitch_head                     0x240001c0   Data          80  gimbal.o(.data.angle_pid_pitch_head)
    angle_pid_pitch_neck                     0x24000210   Data          80  gimbal.o(.data.angle_pid_pitch_neck)
    angle_pid_yaw                            0x24000260   Data          80  gimbal.o(.data.angle_pid_yaw)
    bmi088_init_h7                           0x240002d4   Data         180  bmi088.o(.data.bmi088_init_h7)
    chassis_2006_init                        0x24000388   Data          80  shoot.o(.data.chassis_2006_init)
    chassis_2006_speed_pid                   0x240003d8   Data          80  shoot.o(.data.chassis_2006_speed_pid)
    chassis_3508_init                        0x24000428   Data          80  chassis.o(.data.chassis_3508_init)
    chassis_3508_speed_pid                   0x24000478   Data          80  chassis.o(.data.chassis_3508_speed_pid)
    chassis_max_power                        0x240004c8   Data           4  powerctrl.o(.data.chassis_max_power)
    dm_6006_yaw                              0x240004cc   Data          80  gimbal.o(.data.dm_6006_yaw)
    friction_angle_pid                       0x2400051c   Data          80  shoot.o(.data.friction_angle_pid)
    friction_motor_init                      0x2400056c   Data          80  shoot.o(.data.friction_motor_init)
    friction_speed_pid                       0x240005bc   Data          80  shoot.o(.data.friction_speed_pid)
    omega_follow_pid                         0x2400063c   Data          80  chassis.o(.data.omega_follow_pid)
    p_h_4310                                 0x2400068c   Data          80  gimbal.o(.data.p_h_4310)
    p_n_4310                                 0x240006dc   Data          80  gimbal.o(.data.p_n_4310)
    ready_to_receive                         0x2400072c   Data           1  rs485.o(.data.ready_to_receive)
    speed_pid_pitch_head                     0x24000c80   Data          80  gimbal.o(.data.speed_pid_pitch_head)
    speed_pid_pitch_neck                     0x24000cd0   Data          80  gimbal.o(.data.speed_pid_pitch_neck)
    speed_pid_yaw                            0x24000d20   Data          80  gimbal.o(.data.speed_pid_yaw)
    ui_Infantry_group1_auto                  0x24000d70   Data           4  ui_infantry_group1_0.o(.data.ui_Infantry_group1_auto)
    ui_Infantry_group1_auto_range            0x24000d74   Data           4  ui_infantry_group1_4.o(.data.ui_Infantry_group1_auto_range)
    ui_Infantry_group1_body_rect             0x24000d78   Data           4  ui_infantry_group1_3.o(.data.ui_Infantry_group1_body_rect)
    ui_Infantry_group1_cap                   0x24000d7c   Data           4  ui_infantry_group1_2.o(.data.ui_Infantry_group1_cap)
    ui_Infantry_group1_capasitorRect         0x24000d80   Data           4  ui_infantry_group1_3.o(.data.ui_Infantry_group1_capasitorRect)
    ui_Infantry_group1_fric                  0x24000d84   Data           4  ui_infantry_group1_1.o(.data.ui_Infantry_group1_fric)
    ui_Infantry_group1_frontLine             0x24000d88   Data           4  ui_infantry_group1_3.o(.data.ui_Infantry_group1_frontLine)
    ui_Infantry_group1_horizen1              0x24000d8c   Data           4  ui_infantry_group1_3.o(.data.ui_Infantry_group1_horizen1)
    ui_Infantry_group1_horizen2              0x24000d90   Data           4  ui_infantry_group1_4.o(.data.ui_Infantry_group1_horizen2)
    ui_Infantry_group1_horizen3              0x24000d94   Data           4  ui_infantry_group1_4.o(.data.ui_Infantry_group1_horizen3)
    ui_Infantry_group1_left                  0x24000d98   Data           4  ui_infantry_group1_3.o(.data.ui_Infantry_group1_left)
    ui_Infantry_group1_midline               0x24000d9c   Data           4  ui_infantry_group1_3.o(.data.ui_Infantry_group1_midline)
    ui_Infantry_group1_right                 0x24000da0   Data           4  ui_infantry_group1_3.o(.data.ui_Infantry_group1_right)
    ui_Infantry_group2_Front                 0x24000da4   Data           4  ui_infantry_group2_0.o(.data.ui_Infantry_group2_Front)
    ui_Infantry_group2_auto_point            0x24000da8   Data           4  ui_infantry_group2_0.o(.data.ui_Infantry_group2_auto_point)
    ui_Infantry_group2_electricity           0x24000dac   Data           4  ui_infantry_group2_0.o(.data.ui_Infantry_group2_electricity)
    ui_Infantry_group2_error_num             0x24000db0   Data           4  ui_infantry_group2_0.o(.data.ui_Infantry_group2_error_num)
    ui_Infantry_group2_fric_point            0x24000db4   Data           4  ui_infantry_group2_0.o(.data.ui_Infantry_group2_fric_point)
    ui_Infantry_group2_jam_point             0x24000db8   Data           4  ui_infantry_group2_0.o(.data.ui_Infantry_group2_jam_point)
    ui_g_Ungroup_NewText                     0x24000dbc   Data           4  ui_infantry_group1_5.o(.data.ui_g_Ungroup_NewText)
    ui_self_id                               0x24000dc0   Data           4  ui_interface.o(.data.ui_self_id)
    uwTickFreq                               0x24000dc4   Data           1  stm32h7xx_hal.o(.data.uwTickFreq)
    uwTickPrio                               0x24000dc8   Data           4  stm32h7xx_hal.o(.data.uwTickPrio)
    w_c                                      0x24000dd0   Data           4  chassis.o(.data.w_c)
    Buzzer_Handle                            0x24000e08   Data           4  daemon_task.o(.bss.Buzzer_Handle)
    CYCCNT64                                 0x24000e88   Data           8  bsp_dwt.o(.bss.CYCCNT64)
    Close_Spin_Flag                          0x24000e98   Data           1  control_task.o(.bss.Close_Spin_Flag)
    DM_4310_pitch_head                       0x24000e9c   Data           4  gimbal.o(.bss.DM_4310_pitch_head)
    DM_4310_pitch_neck                       0x24000ea0   Data           4  gimbal.o(.bss.DM_4310_pitch_neck)
    DM_6006_yaw                              0x24000ea4   Data           4  gimbal.o(.bss.DM_6006_yaw)
    Gyro_Pitch                               0x24000ec8   Data           4  ins.o(.bss.Gyro_Pitch)
    Gyro_Yaw                                 0x24000ecc   Data           4  ins.o(.bss.Gyro_Yaw)
    IMU_QuaternionEKF_H                      0x24000ee8   Data          72  quaternionekf.o(.bss.IMU_QuaternionEKF_H)
    IMU_QuaternionEKF_K                      0x24000f30   Data          72  quaternionekf.o(.bss.IMU_QuaternionEKF_K)
    INS                                      0x24000fa8   Data         145  ins.o(.bss.INS)
    INS_task_diff                            0x24001048   Data           4  ins_task.o(.bss.INS_task_diff)
    INS_task_handel                          0x2400104c   Data           4  ins_task.o(.bss.INS_task_handel)
    I_temp                                   0x24001050   Data          16  powerctrl.o(.bss.I_temp)
    I_test                                   0x24001060   Data          16  powerctrl.o(.bss.I_test)
    P_cal                                    0x24001074   Data          16  powerctrl.o(.bss.P_cal)
    P_cmd                                    0x24001084   Data          16  powerctrl.o(.bss.P_cmd)
    P_test                                   0x24001094   Data           4  powerctrl.o(.bss.P_test)
    P_total                                  0x24001098   Data           4  powerctrl.o(.bss.P_total)
    P_total_temp                             0x2400109c   Data           4  powerctrl.o(.bss.P_total_temp)
    QEKF_INS                                 0x240010a0   Data         488  quaternionekf.o(.bss.QEKF_INS)
    SuperCap_Data                            0x24001288   Data           4  supercap.o(.bss.SuperCap_Data)
    USBD_StrDesc                             0x24001290   Data         512  usbd_desc.o(.bss.USBD_StrDesc)
    UserRxBufferHS                           0x240016b0   Data        2048  usbd_cdc_if.o(.bss.UserRxBufferHS)
    UserTxBufferHS                           0x24001eb0   Data        2048  usbd_cdc_if.o(.bss.UserTxBufferHS)
    Yaw_6006_Initial_Value                   0x240026c8   Data           4  gimbal.o(.bss.Yaw_6006_Initial_Value)
    Yaw_IMU_Reference                        0x240026cc   Data           4  gimbal.o(.bss.Yaw_IMU_Reference)
    acc_kf                                   0x240026d0   Data          84  bmi088.o(.bss.acc_kf)
    accel_ins                                0x24002724   Data          12  ins.o(.bss.accel_ins)
    auto_flag                                0x24002730   Data           1  ui.o(.bss.auto_flag)
    beat                                     0x24002734   Data           4  freertos.o(.bss.beat)
    bmi088_h7                                0x24002738   Data           4  bmi088.o(.bss.bmi088_h7)
    cdc_rx_cache                             0x240027a8   Data        1024  usbd_cdc_if.o(.bss.cdc_rx_cache)
    cdc_rx_len                               0x24002ba8   Data           4  usbd_cdc_if.o(.bss.cdc_rx_len)
    chassis_cmd                              0x24002bac   Data          24  chassis.o(.bss.chassis_cmd)
    chassis_m3508                            0x24002bc4   Data          16  chassis.o(.bss.chassis_m3508)
    chassis_shoot_motor                      0x24002bd4   Data           4  shoot.o(.bss.chassis_shoot_motor)
    chassis_task_diff                        0x24002bd8   Data           4  chassis_task.o(.bss.chassis_task_diff)
    cnt_CDC                                  0x24002bdc   Data           4  usbd_cdc_if.o(.bss.cnt_CDC)
    cnt_test                                 0x24002be0   Data           4  gimbal_task.o(.bss.cnt_test)
    control_task_diff                        0x24002be4   Data           4  control_task.o(.bss.control_task_diff)
    control_task_handle                      0x24002be8   Data           4  control_task.o(.bss.control_task_handle)
    current                                  0x24002bec   Data           4  powerctrl.o(.bss.current)
    defaultTaskHandle                        0x24002bf0   Data           4  freertos.o(.bss.defaultTaskHandle)
    delta_gim                                0x24002bf4   Data           4  ui.o(.bss.delta_gim)
    error                                    0x24002c38   Data          16  powerctrl.o(.bss.error)
    error_sum                                0x24002c48   Data           4  powerctrl.o(.bss.error_sum)
    frame_buf                                0x24002c4c   Data        1024  vpc.o(.bss.frame_buf)
    fric_flag                                0x2400304c   Data           1  ui.o(.bss.fric_flag)
    friction_motor                           0x24003050   Data          12  shoot.o(.bss.friction_motor)
    friction_state                           0x2400305c   Data           1  shoot.o(.bss.friction_state)
    g_norm_diff                              0x24003060   Data           4  bmi088.o(.bss.g_norm_diff)
    gimbal_cmd                               0x24003064   Data          35  gimbal.o(.bss.gimbal_cmd)
    gimbal_task_diff                         0x24003088   Data           4  gimbal_task.o(.bss.gimbal_task_diff)
    gimbal_task_handel                       0x2400308c   Data           4  gimbal_task.o(.bss.gimbal_task_handel)
    gyro_diff                                0x240030b0   Data          12  bmi088.o(.bss.gyro_diff)
    gyro_ins                                 0x240030bc   Data          12  ins.o(.bss.gyro_ins)
    gyro_kf                                  0x240030c8   Data          84  bmi088.o(.bss.gyro_kf)
    hUsbDeviceHS                             0x2400311c   Data         732  usb_device.o(.bss.hUsbDeviceHS)
    hdma_uart5_rx                            0x240033f8   Data         120  usart.o(.bss.hdma_uart5_rx)
    hdma_uart7_rx                            0x24003470   Data         120  usart.o(.bss.hdma_uart7_rx)
    hdma_uart7_tx                            0x240034e8   Data         120  usart.o(.bss.hdma_uart7_tx)
    hdma_usart10_rx                          0x24003560   Data         120  usart.o(.bss.hdma_usart10_rx)
    hdma_usart10_tx                          0x240035d8   Data         120  usart.o(.bss.hdma_usart10_tx)
    hfdcan1                                  0x24003650   Data         160  fdcan.o(.bss.hfdcan1)
    hfdcan2                                  0x240036f0   Data         160  fdcan.o(.bss.hfdcan2)
    hfdcan3                                  0x24003790   Data         160  fdcan.o(.bss.hfdcan3)
    hi2c2                                    0x24003830   Data          84  i2c.o(.bss.hi2c2)
    hpcd_USB_OTG_HS                          0x24003884   Data        1252  usbd_conf.o(.bss.hpcd_USB_OTG_HS)
    hspi2                                    0x24003d68   Data         136  spi.o(.bss.hspi2)
    hspi6                                    0x24003df0   Data         136  spi.o(.bss.hspi6)
    htim1                                    0x24003e78   Data          76  tim.o(.bss.htim1)
    htim12                                   0x24003ec4   Data          76  tim.o(.bss.htim12)
    htim2                                    0x24003f10   Data          76  tim.o(.bss.htim2)
    htim3                                    0x24003f5c   Data          76  tim.o(.bss.htim3)
    htim7                                    0x24003fa8   Data          76  stm32h7xx_hal_timebase_tim.o(.bss.htim7)
    huart1                                   0x24003ff4   Data         148  usart.o(.bss.huart1)
    huart10                                  0x24004088   Data         148  usart.o(.bss.huart10)
    huart2                                   0x2400411c   Data         148  usart.o(.bss.huart2)
    huart3                                   0x240041b0   Data         148  usart.o(.bss.huart3)
    huart5                                   0x24004244   Data         148  usart.o(.bss.huart5)
    huart7                                   0x240042d8   Data         148  usart.o(.bss.huart7)
    i                                        0x2400436c   Data           4  dji_motor.o(.bss.i)
    imu_data                                 0x2400437c   Data          28  ins.o(.bss.imu_data)
    ins_time                                 0x24004398   Data           4  ins.o(.bss.ins_time)
    k_coe                                    0x2400439c   Data           4  powerctrl.o(.bss.k_coe)
    nv_aim_packet_from_nuc                   0x240043a0   Data          32  serial.o(.bss.nv_aim_packet_from_nuc)
    nv_aim_packet_to_nuc                     0x240043c0   Data          38  serial.o(.bss.nv_aim_packet_to_nuc)
    omega                                    0x240043e8   Data           4  chassis.o(.bss.omega)
    omega_follow_cal                         0x240043ec   Data           4  chassis.o(.bss.omega_follow_cal)
    pitch_head_angle_measure                 0x240043f0   Data           4  gimbal.o(.bss.pitch_head_angle_measure)
    pitch_head_angle_target                  0x240043f4   Data           4  gimbal.o(.bss.pitch_head_angle_target)
    pitch_head_speed_measure                 0x240043f8   Data           4  gimbal.o(.bss.pitch_head_speed_measure)
    pitch_head_speed_out                     0x240043fc   Data           4  gimbal.o(.bss.pitch_head_speed_out)
    pitch_head_speed_target                  0x24004400   Data           4  gimbal.o(.bss.pitch_head_speed_target)
    procotol_task_diff                       0x2400440c   Data           4  procotol_task.o(.bss.procotol_task_diff)
    procotol_task_handel                     0x24004410   Data           4  procotol_task.o(.bss.procotol_task_handel)
    pxCurrentTCB                             0x24004548   Data           4  tasks.o(.bss.pxCurrentTCB)
    rc_ctl                                   0x240049c0   Data           4  robot_frame_init.o(.bss.rc_ctl)
    referee_usart_instance                   0x24004a64   Data           4  referee.o(.bss.referee_usart_instance)
    refree_data                              0x24004a68   Data           4  robot_frame_init.o(.bss.refree_data)
    robot_cmd_task_handel                    0x24004b94   Data           4  chassis_task.o(.bss.robot_cmd_task_handel)
    seq                                      0x24004ba7   Data           1  ui_interface.o(.bss.seq)
    shoot_mode                               0x24004ba8   Data           1  shoot.o(.bss.shoot_mode)
    shoot_permission                         0x24004bb8   Data           1  shoot.o(.bss.shoot_permission)
    shoot_sender_enable_flag                 0x24004bc0   Data           2  shoot_motor.o(.bss.shoot_sender_enable_flag)
    shoot_task_diff                          0x24004bc8   Data           4  shoot_task.o(.bss.shoot_task_diff)
    shoot_task_handel                        0x24004bcc   Data           4  shoot_task.o(.bss.shoot_task_handel)
    sizeof_double                            0x24004bd0   Data           2  kalman_filter.o(.bss.sizeof_double)
    sizeof_float                             0x24004bd2   Data           2  kalman_filter.o(.bss.sizeof_float)
    speed_rad                                0x24004bd4   Data           4  powerctrl.o(.bss.speed_rad)
    stop_time                                0x24004be0   Data           4  ins.o(.bss.stop_time)
    supercap_energy                          0x24004be4   Data           1  ui.o(.bss.supercap_energy)
    system_time                              0x24004ce8   Data           8  bsp_dwt.o(.bss.system_time)
    target_shoot_frequence                   0x24004cf0   Data           2  shoot.o(.bss.target_shoot_frequence)
    target_speed                             0x24004cf4   Data          16  chassis.o(.bss.target_speed)
    tempData                                 0x24004d04   Data         100  vofa.o(.bss.tempData)
    temp_omega_follow                        0x24004d68   Data           4  chassis.o(.bss.temp_omega_follow)
    temp_v_pitch_head                        0x24004d6c   Data           4  gimbal.o(.bss.temp_v_pitch_head)
    temp_v_pitch_neck                        0x24004d70   Data           4  gimbal.o(.bss.temp_v_pitch_neck)
    temp_v_yaw                               0x24004d74   Data           4  gimbal.o(.bss.temp_v_yaw)
    temp_x                                   0x24004d78   Data           4  control_task.o(.bss.temp_x)
    temp_y                                   0x24004d7c   Data           4  control_task.o(.bss.temp_y)
    uart2_status                             0x24004d80   Data           1  rs485.o(.bss.uart2_status)
    ui_Infantry_group1_0                     0x24008982   Data          60  ui_infantry_group1_0.o(.bss.ui_Infantry_group1_0)
    ui_Infantry_group1_1                     0x240089be   Data          60  ui_infantry_group1_1.o(.bss.ui_Infantry_group1_1)
    ui_Infantry_group1_2                     0x240089fa   Data          60  ui_infantry_group1_2.o(.bss.ui_Infantry_group1_2)
    ui_Infantry_group1_3                     0x24008a36   Data         120  ui_infantry_group1_3.o(.bss.ui_Infantry_group1_3)
    ui_Infantry_group1_4                     0x24008aae   Data          90  ui_infantry_group1_4.o(.bss.ui_Infantry_group1_4)
    ui_Infantry_group2_0                     0x24008b08   Data         105  ui_infantry_group2_0.o(.bss.ui_Infantry_group2_0)
    ui_diff                                  0x24008b74   Data           4  ui.o(.bss.ui_diff)
    ui_g_Ungroup_0                           0x24008b78   Data          60  ui_infantry_group1_5.o(.bss.ui_g_Ungroup_0)
    ui_high_water                            0x24008bb4   Data           4  ui.o(.bss.ui_high_water)
    ui_task_handel                           0x24008bc0   Data           4  ui.o(.bss.ui_task_handel)
    uwTick                                   0x24008be4   Data           4  stm32h7xx_hal.o(.bss.uwTick)
    vofa_data_view                           0x240092b4   Data          80  vofa.o(.bss.vofa_data_view)
    vofa_usart_instance                      0x24009304   Data           4  vofa.o(.bss.vofa_usart_instance)
    vs_aim_packet_from_nuc                   0x24009308   Data          29  serial.o(.bss.vs_aim_packet_from_nuc)
    vs_aim_packet_to_nuc                     0x24009325   Data          43  serial.o(.bss.vs_aim_packet_to_nuc)
    weight                                   0x24009350   Data          16  powerctrl.o(.bss.weight)
    ws2812_config                            0x24009360   Data          20  ws2812.o(.bss.ws2812_config)
    ws2812_instance                          0x24009374   Data           4  ws2812.o(.bss.ws2812_instance)
    xQueueRegistry                           0x24009400   Data          64  queue.o(.bss.xQueueRegistry)
    x_c                                      0x24009484   Data           4  chassis.o(.bss.x_c)
    y_1                                      0x24009488   Data           4  ramp.o(.bss.y_1)
    y_2                                      0x2400948c   Data           4  ramp.o(.bss.y_2)
    y_3                                      0x24009490   Data           4  ramp.o(.bss.y_3)
    y_4                                      0x24009494   Data           4  ramp.o(.bss.y_4)
    yaw_angle_measure                        0x24009498   Data           4  gimbal.o(.bss.yaw_angle_measure)
    yaw_angle_target                         0x2400949c   Data           4  gimbal.o(.bss.yaw_angle_target)
    yaw_speed_measure                        0x240094a0   Data           4  gimbal.o(.bss.yaw_speed_measure)
    yaw_speed_out                            0x240094a4   Data           4  gimbal.o(.bss.yaw_speed_out)
    yaw_speed_target                         0x240094a8   Data           4  gimbal.o(.bss.yaw_speed_target)
    yaw_to_mid                               0x240094ac   Data           4  gimbal.o(.bss.yaw_to_mid)
    yaw_to_mid_error                         0x240094b0   Data           4  gimbal.o(.bss.yaw_to_mid_error)
    __heap_base                              0x240094b8   Data           0  startup_stm32h723xx.o(HEAP)
    __heap_limit                             0x2400aab8   Data           0  startup_stm32h723xx.o(HEAP)
    __initial_sp                             0x2400dcb8   Data           0  startup_stm32h723xx.o(STACK)



==============================================================================

Memory Map of the image

  Image Entry point : 0x080002cd

  Load Region LR_IROM1 (Base: 0x08000000, Size: 0x0002b3c8, Max: 0x00100000, ABSOLUTE, COMPRESSED[0x0002a8e8])

    Execution Region ER_IROM1 (Exec base: 0x08000000, Load base: 0x08000000, Size: 0x0002a5f0, Max: 0x00100000, ABSOLUTE)

    Exec Addr    Load Addr    Size         Type   Attr      Idx    E Section Name        Object

    0x08000000   0x08000000   0x000002cc   Data   RO            3    RESET               startup_stm32h723xx.o
    0x080002cc   0x080002cc   0x00000000   Code   RO         4830  * .ARM.Collect$$$$00000000  mc_w.l(entry.o)
    0x080002cc   0x080002cc   0x00000004   Code   RO         4981    .ARM.Collect$$$$00000001  mc_w.l(entry2.o)
    0x080002d0   0x080002d0   0x00000004   Code   RO         4984    .ARM.Collect$$$$00000004  mc_w.l(entry5.o)
    0x080002d4   0x080002d4   0x00000000   Code   RO         4986    .ARM.Collect$$$$00000008  mc_w.l(entry7b.o)
    0x080002d4   0x080002d4   0x00000000   Code   RO         4988    .ARM.Collect$$$$0000000A  mc_w.l(entry8b.o)
    0x080002d4   0x080002d4   0x00000008   Code   RO         4989    .ARM.Collect$$$$0000000B  mc_w.l(entry9a.o)
    0x080002dc   0x080002dc   0x00000000   Code   RO         4991    .ARM.Collect$$$$0000000D  mc_w.l(entry10a.o)
    0x080002dc   0x080002dc   0x00000000   Code   RO         4993    .ARM.Collect$$$$0000000F  mc_w.l(entry11a.o)
    0x080002dc   0x080002dc   0x00000004   Code   RO         4982    .ARM.Collect$$$$00002712  mc_w.l(entry2.o)
    0x080002e0   0x080002e0   0x0000002c   Code   RO            4    .text               startup_stm32h723xx.o
    0x0800030c   0x0800030c   0x00000062   Code   RO         4833    .text               mc_w.l(uldiv.o)
    0x0800036e   0x0800036e   0x00000002   PAD
    0x08000370   0x08000370   0x00000008   Code   RO         4835    .text               mc_w.l(ctype_o.o)
    0x08000378   0x08000378   0x0000000c   Code   RO         4863    .text               mc_w.l(toupper.o)
    0x08000384   0x08000384   0x00000040   Code   RO         4867    .text               mc_w.l(memmovea.o)
    0x080003c4   0x080003c4   0x00000024   Code   RO         4869    .text               mc_w.l(memseta.o)
    0x080003e8   0x080003e8   0x0000000e   Code   RO         4871    .text               mc_w.l(strlen.o)
    0x080003f6   0x080003f6   0x0000001c   Code   RO         4873    .text               mc_w.l(strcmp.o)
    0x08000412   0x08000412   0x00000012   Code   RO         4875    .text               mc_w.l(strcpy.o)
    0x08000424   0x08000424   0x0000001e   Code   RO         5011    .text               mc_w.l(llshl.o)
    0x08000442   0x08000442   0x00000020   Code   RO         5013    .text               mc_w.l(llushr.o)
    0x08000462   0x08000462   0x00000000   Code   RO         5024    .text               mc_w.l(iusefp.o)
    0x08000462   0x08000462   0x00000002   PAD
    0x08000464   0x08000464   0x00000030   Code   RO         5045    .text               mc_w.l(init.o)
    0x08000494   0x08000494   0x00000056   Code   RO         5061    .text               mc_w.l(__dczerorl2.o)
    0x080004ea   0x080004ea   0x00000006   PAD
    0x080004f0   0x080004f0   0x00000038   Code   RO         3251    .text.BMI088_Accel_INT_Callback  bmi088.o
    0x08000528   0x08000528   0x000001c0   Code   RO         3257    .text.BMI088_Accel_Init  bmi088.o
    0x080006e8   0x080006e8   0x0000005c   Code   RO         3237    .text.BMI088_Accel_Read  bmi088.o
    0x08000744   0x08000744   0x00000004   PAD
    0x08000748   0x08000748   0x00000154   Code   RO         3247    .text.BMI088_Accel_SPI_Finish_Callback  bmi088.o
    0x0800089c   0x0800089c   0x00000004   PAD
    0x080008a0   0x080008a0   0x0000002e   Code   RO         3263    .text.BMI088_Accel_Write_SingleReg  bmi088.o
    0x080008ce   0x080008ce   0x00000002   PAD
    0x080008d0   0x080008d0   0x000006f0   Code   RO         3243    .text.BMI088_Calibrate_IMU  bmi088.o
    0x08000fc0   0x08000fc0   0x00000008   Code   RO         3261    .text.BMI088_Filter_Init  bmi088.o
    0x08000fc8   0x08000fc8   0x00000038   Code   RO         3253    .text.BMI088_Gyro_INT_Callback  bmi088.o
    0x08001000   0x08001000   0x000001d4   Code   RO         3259    .text.BMI088_Gyro_Init  bmi088.o
    0x080011d4   0x080011d4   0x00000004   PAD
    0x080011d8   0x080011d8   0x0000005c   Code   RO         3239    .text.BMI088_Gyro_Read  bmi088.o
    0x08001234   0x08001234   0x00000004   PAD
    0x08001238   0x08001238   0x00000138   Code   RO         3249    .text.BMI088_Gyro_SPI_Finish_Callback  bmi088.o
    0x08001370   0x08001370   0x0000002e   Code   RO         3265    .text.BMI088_Gyro_Write_SingleReg  bmi088.o
    0x0800139e   0x0800139e   0x00000002   PAD
    0x080013a0   0x080013a0   0x00000074   Code   RO         3267    .text.BMI088_Kalman_Filter_Init  bmi088.o
    0x08001414   0x08001414   0x00000004   PAD
    0x08001418   0x08001418   0x00000334   Code   RO         3235    .text.BMI088_Read_All  bmi088.o
    0x0800174c   0x0800174c   0x00000004   PAD
    0x08001750   0x08001750   0x0000016c   Code   RO         3245    .text.BMI088_Register  bmi088.o
    0x080018bc   0x080018bc   0x00000004   PAD
    0x080018c0   0x080018c0   0x0000005a   Code   RO         3255    .text.BMI088_Set_Mode  bmi088.o
    0x0800191a   0x0800191a   0x00000006   PAD
    0x08001920   0x08001920   0x00000102   Code   RO         4198    .text.BodyFrameToEarthFrame  ins.o
    0x08001a22   0x08001a22   0x00000006   PAD
    0x08001a28   0x08001a28   0x00000004   Code   RO          175    .text.BusFault_Handler  stm32h7xx_it.o
    0x08001a2c   0x08001a2c   0x00000004   PAD
    0x08001a30   0x08001a30   0x00000048   Code   RO         3188    .text.Buzzer_Play   buzzer.o
    0x08001a78   0x08001a78   0x00000084   Code   RO         3186    .text.Buzzer_Register  buzzer.o
    0x08001afc   0x08001afc   0x00000004   PAD
    0x08001b00   0x08001b00   0x0000001c   Code   RO         3192    .text.Buzzer_Silence  buzzer.o
    0x08001b1c   0x08001b1c   0x00000004   PAD
    0x08001b20   0x08001b20   0x00000096   Code   RO         3196    .text.Buzzer_Task   buzzer.o
    0x08001bb6   0x08001bb6   0x00000002   PAD
    0x08001bb8   0x08001bb8   0x00000056   Code   RO         4169    .text.Buzzer_Task_Init  daemon_task.o
    0x08001c0e   0x08001c0e   0x00000002   PAD
    0x08001c10   0x08001c10   0x000000f6   Code   RO         2997    .text.CANFIFOxCallback  bsp_can.o
    0x08001d06   0x08001d06   0x00000002   PAD
    0x08001d08   0x08001d08   0x000000a2   Code   RO         2987    .text.CAN_Add_Filter  bsp_can.o
    0x08001daa   0x08001daa   0x00000006   PAD
    0x08001db0   0x08001db0   0x000000e2   Code   RO         2983    .text.CAN_Register  bsp_can.o
    0x08001e92   0x08001e92   0x00000006   PAD
    0x08001e98   0x08001e98   0x000000e2   Code   RO         2985    .text.CAN_Service_Init  bsp_can.o
    0x08001f7a   0x08001f7a   0x00000006   PAD
    0x08001f80   0x08001f80   0x000000b8   Code   RO         2989    .text.CAN_Transmit  bsp_can.o
    0x08002038   0x08002038   0x0000005c   Code   RO         4469    .text.CDC_Control_HS  usbd_cdc_if.o
    0x08002094   0x08002094   0x00000004   PAD
    0x08002098   0x08002098   0x00000004   Code   RO         4467    .text.CDC_DeInit_HS  usbd_cdc_if.o
    0x0800209c   0x0800209c   0x00000004   PAD
    0x080020a0   0x080020a0   0x00000032   Code   RO         4465    .text.CDC_Init_HS   usbd_cdc_if.o
    0x080020d2   0x080020d2   0x00000006   PAD
    0x080020d8   0x080020d8   0x000000dc   Code   RO         4471    .text.CDC_Receive_HS  usbd_cdc_if.o
    0x080021b4   0x080021b4   0x00000004   PAD
    0x080021b8   0x080021b8   0x0000001a   Code   RO         4333    .text.CDC_SendFeed  serial.o
    0x080021d2   0x080021d2   0x00000006   PAD
    0x080021d8   0x080021d8   0x00000018   Code   RO         4473    .text.CDC_TransmitCplt_HS  usbd_cdc_if.o
    0x080021f0   0x080021f0   0x00000060   Code   RO         4475    .text.CDC_Transmit_HS  usbd_cdc_if.o
    0x08002250   0x08002250   0x0000012c   Code   RO         4287    .text.Chassis_Cmd_Trans  control_task.o
    0x0800237c   0x0800237c   0x00000004   PAD
    0x08002380   0x08002380   0x0000017c   Code   RO         4011    .text.Chassis_Ctrl_Remote  chassis.o
    0x080024fc   0x080024fc   0x00000004   PAD
    0x08002500   0x08002500   0x00000032   Code   RO         4007    .text.Chassis_Enable  chassis.o
    0x08002532   0x08002532   0x00000006   PAD
    0x08002538   0x08002538   0x00000148   Code   RO         4003    .text.Chassis_Get_Omega_Follow  chassis.o
    0x08002680   0x08002680   0x000000ac   Code   RO         4001    .text.Chassis_Get_Omega_Ref  chassis.o
    0x0800272c   0x0800272c   0x00000004   PAD
    0x08002730   0x08002730   0x00000046   Code   RO         4005    .text.Chassis_Init  chassis.o
    0x08002776   0x08002776   0x00000002   PAD
    0x08002778   0x08002778   0x000000a0   Code   RO         4402    .text.Chassis_Power_Decode  supercap.o
    0x08002818   0x08002818   0x0000007a   Code   RO         4398    .text.Chassis_Power_Init  supercap.o
    0x08002892   0x08002892   0x00000006   PAD
    0x08002898   0x08002898   0x00000032   Code   RO         4009    .text.Chassis_Stop  chassis.o
    0x080028ca   0x080028ca   0x00000006   PAD
    0x080028d0   0x080028d0   0x00000034   Code   RO         4035    .text.Chassis_Task  chassis_task.o
    0x08002904   0x08002904   0x00000004   PAD
    0x08002908   0x08002908   0x00000056   Code   RO         4033    .text.Chassis_Task_Init  chassis_task.o
    0x0800295e   0x0800295e   0x00000002   PAD
    0x08002960   0x08002960   0x00000020   Code   RO         3128    .text.Check_Len     message_center.o
    0x08002980   0x08002980   0x0000001a   Code   RO         3126    .text.Check_Name    message_center.o
    0x0800299a   0x0800299a   0x00000006   PAD
    0x080029a0   0x080029a0   0x0000014a   Code   RO         4321    .text.Choose_VPC_Type  vpc.o
    0x08002aea   0x08002aea   0x00000006   PAD
    0x08002af0   0x08002af0   0x00000012   Code   RO         4056    .text.Climbing_Hill  gimbal.o
    0x08002b02   0x08002b02   0x00000006   PAD
    0x08002b08   0x08002b08   0x00000064   Code   RO         4323    .text.Consume_CDC_Cache  vpc.o
    0x08002b6c   0x08002b6c   0x00000004   PAD
    0x08002b70   0x08002b70   0x00000064   Code   RO         4285    .text.Control_Task  control_task.o
    0x08002bd4   0x08002bd4   0x00000004   PAD
    0x08002bd8   0x08002bd8   0x00000056   Code   RO         4283    .text.Control_Task_Init  control_task.o
    0x08002c2e   0x08002c2e   0x00000002   PAD
    0x08002c30   0x08002c30   0x00000072   Code   RO         3565    .text.Cross3d       user_lib.o
    0x08002ca2   0x08002ca2   0x00000006   PAD
    0x08002ca8   0x08002ca8   0x00000388   Code   RO         3348    .text.DJI_Motor_Control  dji_motor.o
    0x08003030   0x08003030   0x00000010   Code   RO         3336    .text.DJI_Motor_Enable  dji_motor.o
    0x08003040   0x08003040   0x00000008   Code   RO         3346    .text.DJI_Motor_Error_Detection  dji_motor.o
    0x08003048   0x08003048   0x00000100   Code   RO         3324    .text.DJI_Motor_Init  dji_motor.o
    0x08003148   0x08003148   0x00000046   Code   RO         3330    .text.DJI_Motor_Lost_Callback  dji_motor.o
    0x0800318e   0x0800318e   0x00000002   PAD
    0x08003190   0x08003190   0x00000012   Code   RO         3340    .text.DJI_Motor_Set_Ref  dji_motor.o
    0x080031a2   0x080031a2   0x00000006   PAD
    0x080031a8   0x080031a8   0x00000010   Code   RO         3332    .text.DJI_Motor_Stop  dji_motor.o
    0x080031b8   0x080031b8   0x00000010   Code   RO          181    .text.DMA1_Stream0_IRQHandler  stm32h7xx_it.o
    0x080031c8   0x080031c8   0x00000010   Code   RO          183    .text.DMA1_Stream1_IRQHandler  stm32h7xx_it.o
    0x080031d8   0x080031d8   0x00000010   Code   RO          185    .text.DMA1_Stream2_IRQHandler  stm32h7xx_it.o
    0x080031e8   0x080031e8   0x00000010   Code   RO          187    .text.DMA1_Stream3_IRQHandler  stm32h7xx_it.o
    0x080031f8   0x080031f8   0x00000010   Code   RO          209    .text.DMA2_Stream0_IRQHandler  stm32h7xx_it.o
    0x08003208   0x08003208   0x000001ca   Code   RO         1070    .text.DMA_CalcBaseAndBitshift  stm32h7xx_hal_dma.o
    0x080033d2   0x080033d2   0x00000006   PAD
    0x080033d8   0x080033d8   0x00000178   Code   RO         1072    .text.DMA_CalcDMAMUXChannelBaseAndMask  stm32h7xx_hal_dma.o
    0x08003550   0x08003550   0x0000012a   Code   RO         1074    .text.DMA_CalcDMAMUXRequestGenBaseAndMask  stm32h7xx_hal_dma.o
    0x0800367a   0x0800367a   0x00000006   PAD
    0x08003680   0x08003680   0x000000f0   Code   RO         1068    .text.DMA_CheckFifoParam  stm32h7xx_hal_dma.o
    0x08003770   0x08003770   0x00000514   Code   RO         1080    .text.DMA_SetConfig  stm32h7xx_hal_dma.o
    0x08003c84   0x08003c84   0x00000004   PAD
    0x08003c88   0x08003c88   0x00000064   Code   RO         3392    .text.DM_DM124_Ctrl  dm_motor.o
    0x08003cec   0x08003cec   0x00000004   PAD
    0x08003cf0   0x08003cf0   0x0000014c   Code   RO         3386    .text.DM_MIT_Ctrl   dm_motor.o
    0x08003e3c   0x08003e3c   0x00000004   PAD
    0x08003e40   0x08003e40   0x0000037c   Code   RO         3402    .text.DM_Motor_Control  dm_motor.o
    0x080041bc   0x080041bc   0x00000004   PAD
    0x080041c0   0x080041c0   0x00000052   Code   RO         3380    .text.DM_Motor_DISABLE  dm_motor.o
    0x08004212   0x08004212   0x00000006   PAD
    0x08004218   0x08004218   0x0000013c   Code   RO         3396    .text.DM_Motor_Decode  dm_motor.o
    0x08004354   0x08004354   0x00000004   PAD
    0x08004358   0x08004358   0x00000052   Code   RO         3378    .text.DM_Motor_ENABLE  dm_motor.o
    0x080043aa   0x080043aa   0x00000006   PAD
    0x080043b0   0x080043b0   0x00000140   Code   RO         3394    .text.DM_Motor_Init  dm_motor.o
    0x080044f0   0x080044f0   0x0000001a   Code   RO         3398    .text.DM_Motor_Lost_Callback  dm_motor.o
    0x0800450a   0x0800450a   0x00000006   PAD
    0x08004510   0x08004510   0x00000012   Code   RO         3384    .text.DM_Motor_SetTar  dm_motor.o
    0x08004522   0x08004522   0x00000006   PAD
    0x08004528   0x08004528   0x00000034   Code   RO         3372    .text.DM_Motor_Set_Mode  dm_motor.o
    0x0800455c   0x0800455c   0x00000004   PAD
    0x08004560   0x08004560   0x00000050   Code   RO         3374    .text.DM_Motor_Start  dm_motor.o
    0x080045b0   0x080045b0   0x00000050   Code   RO         3376    .text.DM_Motor_Stop  dm_motor.o
    0x08004600   0x08004600   0x00000094   Code   RO         3388    .text.DM_Pos_Speed_Ctrl  dm_motor.o
    0x08004694   0x08004694   0x00000004   PAD
    0x08004698   0x08004698   0x0000005c   Code   RO         3390    .text.DM_Speed_Ctrl  dm_motor.o
    0x080046f4   0x080046f4   0x00000004   PAD
    0x080046f8   0x080046f8   0x00000068   Code   RO         2924    .text.DWT_CNT_Update  bsp_dwt.o
    0x08004760   0x08004760   0x00000058   Code   RO         2938    .text.DWT_Delay     bsp_dwt.o
    0x080047b8   0x080047b8   0x0000004c   Code   RO         2926    .text.DWT_GetDeltaT  bsp_dwt.o
    0x08004804   0x08004804   0x00000004   PAD
    0x08004808   0x08004808   0x00000048   Code   RO         2934    .text.DWT_GetTimeline_ms  bsp_dwt.o
    0x08004850   0x08004850   0x00000050   Code   RO         2930    .text.DWT_GetTimeline_s  bsp_dwt.o
    0x080048a0   0x080048a0   0x0000008e   Code   RO         2922    .text.DWT_Init      bsp_dwt.o
    0x0800492e   0x0800492e   0x00000002   PAD
    0x08004930   0x08004930   0x000000fc   Code   RO         2932    .text.DWT_System_Time_Update  bsp_dwt.o
    0x08004a2c   0x08004a2c   0x00000004   PAD
    0x08004a30   0x08004a30   0x00000002   Code   RO          179    .text.DebugMon_Handler  stm32h7xx_it.o
    0x08004a32   0x08004a32   0x00000006   PAD
    0x08004a38   0x08004a38   0x00000278   Code   RO         3328    .text.Decode_DJI_Motor  dji_motor.o
    0x08004cb0   0x08004cb0   0x00000032   Code   RO         3567    .text.Dot3d         user_lib.o
    0x08004ce2   0x08004ce2   0x00000006   PAD
    0x08004ce8   0x08004ce8   0x00000178   Code   RO         4194    .text.EKF_Quaternion_Init  ins.o
    0x08004e60   0x08004e60   0x00000102   Code   RO         4200    .text.EarthFrameToBodyFrame  ins.o
    0x08004f62   0x08004f62   0x00000006   PAD
    0x08004f68   0x08004f68   0x0000000e   Code   RO           15    .text.Error_Handler  main.o
    0x08004f76   0x08004f76   0x00000002   PAD
    0x08004f78   0x08004f78   0x00000028   Code   RO         2240    .text.ExitRun0Mode  system_stm32h7xx.o
    0x08004fa0   0x08004fa0   0x00000010   Code   RO          189    .text.FDCAN1_IT0_IRQHandler  stm32h7xx_it.o
    0x08004fb0   0x08004fb0   0x00000010   Code   RO          193    .text.FDCAN1_IT1_IRQHandler  stm32h7xx_it.o
    0x08004fc0   0x08004fc0   0x00000010   Code   RO          191    .text.FDCAN2_IT0_IRQHandler  stm32h7xx_it.o
    0x08004fd0   0x08004fd0   0x00000010   Code   RO          195    .text.FDCAN2_IT1_IRQHandler  stm32h7xx_it.o
    0x08004fe0   0x08004fe0   0x00000010   Code   RO          217    .text.FDCAN3_IT0_IRQHandler  stm32h7xx_it.o
    0x08004ff0   0x08004ff0   0x00000010   Code   RO          219    .text.FDCAN3_IT1_IRQHandler  stm32h7xx_it.o
    0x08005000   0x08005000   0x000002c2   Code   RO         1718    .text.FDCAN_CalcultateRamBlockAddresses  stm32h7xx_hal_fdcan.o
    0x080052c2   0x080052c2   0x00000006   PAD
    0x080052c8   0x080052c8   0x000000b8   Code   RO         1788    .text.FDCAN_CopyMessageToRAM  stm32h7xx_hal_fdcan.o
    0x08005380   0x08005380   0x00000080   Code   RO         3985    .text.Frame_Device_Init  robot_frame_init.o
    0x08005400   0x08005400   0x0000000c   Code   RO         3983    .text.Frame_MCU_Init  robot_frame_init.o
    0x0800540c   0x0800540c   0x00000004   PAD
    0x08005410   0x08005410   0x00000024   Code   RO         3987    .text.Frame_Task_Init  robot_frame_init.o
    0x08005434   0x08005434   0x00000004   PAD
    0x08005438   0x08005438   0x0000006c   Code   RO         3067    .text.GPIO_Register  bsp_gpio.o
    0x080054a4   0x080054a4   0x00000004   PAD
    0x080054a8   0x080054a8   0x00000066   Code   RO         3622    .text.Get_CRC16_Check_Sum  crc.o
    0x0800550e   0x0800550e   0x00000002   PAD
    0x08005510   0x08005510   0x00000044   Code   RO         3616    .text.Get_CRC8_Check_Sum  crc.o
    0x08005554   0x08005554   0x00000004   PAD
    0x08005558   0x08005558   0x0000005c   Code   RO         4445    .text.Get_SerialNum  usbd_desc.o
    0x080055b4   0x080055b4   0x00000004   PAD
    0x080055b8   0x080055b8   0x00001294   Code   RO         4060    .text.Gimbal_Control_Remote  gimbal.o
    0x0800684c   0x0800684c   0x00000004   PAD
    0x08006850   0x08006850   0x0000002e   Code   RO         4052    .text.Gimbal_Disable  gimbal.o
    0x0800687e   0x0800687e   0x00000002   PAD
    0x08006880   0x08006880   0x0000002e   Code   RO         4050    .text.Gimbal_Enable  gimbal.o
    0x080068ae   0x080068ae   0x00000002   PAD
    0x080068b0   0x080068b0   0x00000078   Code   RO         4048    .text.Gimbal_Init   gimbal.o
    0x08006928   0x08006928   0x0000002e   Code   RO         4054    .text.Gimbal_Stop   gimbal.o
    0x08006956   0x08006956   0x00000002   PAD
    0x08006958   0x08006958   0x00000088   Code   RO         4101    .text.Gimbal_Task   gimbal_task.o
    0x080069e0   0x080069e0   0x00000056   Code   RO         4099    .text.Gimbal_Task_Init  gimbal_task.o
    0x08006a36   0x08006a36   0x00000002   PAD
    0x08006a38   0x08006a38   0x00000058   Code   RO         3772    .text.Gimbal_limit  ramp.o
    0x08006a90   0x08006a90   0x00000978   Code   RO         1084    .text.HAL_DMA_Abort  stm32h7xx_hal_dma.o
    0x08007408   0x08007408   0x000006aa   Code   RO         1086    .text.HAL_DMA_Abort_IT  stm32h7xx_hal_dma.o
    0x08007ab2   0x08007ab2   0x00000006   PAD
    0x08007ab8   0x08007ab8   0x0000047c   Code   RO         1076    .text.HAL_DMA_DeInit  stm32h7xx_hal_dma.o
    0x08007f34   0x08007f34   0x00000004   PAD
    0x08007f38   0x08007f38   0x0000000c   Code   RO         1098    .text.HAL_DMA_GetError  stm32h7xx_hal_dma.o
    0x08007f44   0x08007f44   0x00000004   PAD
    0x08007f48   0x08007f48   0x000011c0   Code   RO         1090    .text.HAL_DMA_IRQHandler  stm32h7xx_hal_dma.o
    0x08009108   0x08009108   0x00000960   Code   RO         1066    .text.HAL_DMA_Init  stm32h7xx_hal_dma.o
    0x08009a68   0x08009a68   0x00000702   Code   RO         1082    .text.HAL_DMA_Start_IT  stm32h7xx_hal_dma.o
    0x0800a16a   0x0800a16a   0x00000006   PAD
    0x0800a170   0x0800a170   0x00000042   Code   RO         1403    .text.HAL_Delay     stm32h7xx_hal.o
    0x0800a1b2   0x0800a1b2   0x00000006   PAD
    0x0800a1b8   0x0800a1b8   0x00000042   Code   RO         1796    .text.HAL_FDCAN_AbortTxRequest  stm32h7xx_hal_fdcan.o
    0x0800a1fa   0x0800a1fa   0x00000006   PAD
    0x0800a200   0x0800a200   0x000000fe   Code   RO         1866    .text.HAL_FDCAN_ActivateNotification  stm32h7xx_hal_fdcan.o
    0x0800a2fe   0x0800a2fe   0x00000002   PAD
    0x0800a300   0x0800a300   0x000000ca   Code   RO         1786    .text.HAL_FDCAN_AddMessageToTxFifoQ  stm32h7xx_hal_fdcan.o
    0x0800a3ca   0x0800a3ca   0x00000006   PAD
    0x0800a3d0   0x0800a3d0   0x0000000a   Code   RO         1880    .text.HAL_FDCAN_ClockCalibrationCallback  stm32h7xx_hal_fdcan.o
    0x0800a3da   0x0800a3da   0x00000006   PAD
    0x0800a3e0   0x0800a3e0   0x000000a8   Code   RO         1746    .text.HAL_FDCAN_ConfigFifoWatermark  stm32h7xx_hal_fdcan.o
    0x0800a488   0x0800a488   0x00000116   Code   RO         1738    .text.HAL_FDCAN_ConfigFilter  stm32h7xx_hal_fdcan.o
    0x0800a59e   0x0800a59e   0x00000002   PAD
    0x0800a5a0   0x0800a5a0   0x0000005c   Code   RO         1740    .text.HAL_FDCAN_ConfigGlobalFilter  stm32h7xx_hal_fdcan.o
    0x0800a5fc   0x0800a5fc   0x00000004   PAD
    0x0800a600   0x0800a600   0x00000008   Code   RO         1908    .text.HAL_FDCAN_ErrorCallback  stm32h7xx_hal_fdcan.o
    0x0800a608   0x0800a608   0x0000000a   Code   RO         1898    .text.HAL_FDCAN_ErrorStatusCallback  stm32h7xx_hal_fdcan.o
    0x0800a612   0x0800a612   0x00000006   PAD
    0x0800a618   0x0800a618   0x00000034   Code   RO         1812    .text.HAL_FDCAN_GetRxFifoFillLevel  stm32h7xx_hal_fdcan.o
    0x0800a64c   0x0800a64c   0x00000004   PAD
    0x0800a650   0x0800a650   0x000002f8   Code   RO         1798    .text.HAL_FDCAN_GetRxMessage  stm32h7xx_hal_fdcan.o
    0x0800a948   0x0800a948   0x00000018   Code   RO         1814    .text.HAL_FDCAN_GetTxFifoFreeLevel  stm32h7xx_hal_fdcan.o
    0x0800a960   0x0800a960   0x00000008   Code   RO         1876    .text.HAL_FDCAN_HighPriorityMessageCallback  stm32h7xx_hal_fdcan.o
    0x0800a968   0x0800a968   0x000005e2   Code   RO         1874    .text.HAL_FDCAN_IRQHandler  stm32h7xx_hal_fdcan.o
    0x0800af4a   0x0800af4a   0x00000006   PAD
    0x0800af50   0x0800af50   0x000003e0   Code   RO         1714    .text.HAL_FDCAN_Init  stm32h7xx_hal_fdcan.o
    0x0800b330   0x0800b330   0x00000294   Code   RO           64    .text.HAL_FDCAN_MspInit  fdcan.o
    0x0800b5c4   0x0800b5c4   0x00000004   PAD
    0x0800b5c8   0x0800b5c8   0x00000008   Code   RO         1892    .text.HAL_FDCAN_RxBufferNewMessageCallback  stm32h7xx_hal_fdcan.o
    0x0800b5d0   0x0800b5d0   0x00000014   Code   RO         2995    .text.HAL_FDCAN_RxFifo0Callback  bsp_can.o
    0x0800b5e4   0x0800b5e4   0x00000004   PAD
    0x0800b5e8   0x0800b5e8   0x00000014   Code   RO         2999    .text.HAL_FDCAN_RxFifo1Callback  bsp_can.o
    0x0800b5fc   0x0800b5fc   0x00000004   PAD
    0x0800b600   0x0800b600   0x00000050   Code   RO         1784    .text.HAL_FDCAN_Start  stm32h7xx_hal_fdcan.o
    0x0800b650   0x0800b650   0x000000ea   Code   RO         1722    .text.HAL_FDCAN_Stop  stm32h7xx_hal_fdcan.o
    0x0800b73a   0x0800b73a   0x00000006   PAD
    0x0800b740   0x0800b740   0x0000000a   Code   RO         1906    .text.HAL_FDCAN_TT_GlobalTimeCallback  stm32h7xx_hal_fdcan.o
    0x0800b74a   0x0800b74a   0x00000006   PAD
    0x0800b750   0x0800b750   0x0000000a   Code   RO         1900    .text.HAL_FDCAN_TT_ScheduleSyncCallback  stm32h7xx_hal_fdcan.o
    0x0800b75a   0x0800b75a   0x00000006   PAD
    0x0800b760   0x0800b760   0x0000000c   Code   RO         1904    .text.HAL_FDCAN_TT_StopWatchCallback  stm32h7xx_hal_fdcan.o
    0x0800b76c   0x0800b76c   0x00000004   PAD
    0x0800b770   0x0800b770   0x0000000a   Code   RO         1902    .text.HAL_FDCAN_TT_TimeMarkCallback  stm32h7xx_hal_fdcan.o
    0x0800b77a   0x0800b77a   0x00000006   PAD
    0x0800b780   0x0800b780   0x00000008   Code   RO         1896    .text.HAL_FDCAN_TimeoutOccurredCallback  stm32h7xx_hal_fdcan.o
    0x0800b788   0x0800b788   0x00000008   Code   RO         1894    .text.HAL_FDCAN_TimestampWraparoundCallback  stm32h7xx_hal_fdcan.o
    0x0800b790   0x0800b790   0x0000000a   Code   RO         1878    .text.HAL_FDCAN_TxBufferAbortCallback  stm32h7xx_hal_fdcan.o
    0x0800b79a   0x0800b79a   0x00000006   PAD
    0x0800b7a0   0x0800b7a0   0x0000000a   Code   RO         1890    .text.HAL_FDCAN_TxBufferCompleteCallback  stm32h7xx_hal_fdcan.o
    0x0800b7aa   0x0800b7aa   0x00000006   PAD
    0x0800b7b0   0x0800b7b0   0x0000000a   Code   RO         1882    .text.HAL_FDCAN_TxEventFifoCallback  stm32h7xx_hal_fdcan.o
    0x0800b7ba   0x0800b7ba   0x00000006   PAD
    0x0800b7c0   0x0800b7c0   0x00000008   Code   RO         1888    .text.HAL_FDCAN_TxFifoEmptyCallback  stm32h7xx_hal_fdcan.o
    0x0800b7c8   0x0800b7c8   0x0000022a   Code   RO         1016    .text.HAL_GPIO_DeInit  stm32h7xx_hal_gpio.o
    0x0800b9f2   0x0800b9f2   0x00000006   PAD
    0x0800b9f8   0x0800b9f8   0x000003a8   Code   RO         1014    .text.HAL_GPIO_Init  stm32h7xx_hal_gpio.o
    0x0800bda0   0x0800bda0   0x0000002e   Code   RO         1018    .text.HAL_GPIO_ReadPin  stm32h7xx_hal_gpio.o
    0x0800bdce   0x0800bdce   0x00000002   PAD
    0x0800bdd0   0x0800bdd0   0x0000002e   Code   RO         1020    .text.HAL_GPIO_WritePin  stm32h7xx_hal_gpio.o
    0x0800bdfe   0x0800bdfe   0x00000002   PAD
    0x0800be00   0x0800be00   0x0000000c   Code   RO         1395    .text.HAL_GetTick   stm32h7xx_hal.o
    0x0800be0c   0x0800be0c   0x00000004   PAD
    0x0800be10   0x0800be10   0x00000098   Code   RO         1670    .text.HAL_I2CEx_ConfigAnalogFilter  stm32h7xx_hal_i2c_ex.o
    0x0800bea8   0x0800bea8   0x000000a2   Code   RO         1672    .text.HAL_I2CEx_ConfigDigitalFilter  stm32h7xx_hal_i2c_ex.o
    0x0800bf4a   0x0800bf4a   0x00000006   PAD
    0x0800bf50   0x0800bf50   0x00000114   Code   RO         1501    .text.HAL_I2C_Init  stm32h7xx_hal_i2c.o
    0x0800c064   0x0800c064   0x00000004   PAD
    0x0800c068   0x0800c068   0x000000aa   Code   RO           81    .text.HAL_I2C_MspInit  i2c.o
    0x0800c112   0x0800c112   0x00000006   PAD
    0x0800c118   0x0800c118   0x0000001a   Code   RO         1393    .text.HAL_IncTick   stm32h7xx_hal.o
    0x0800c132   0x0800c132   0x00000006   PAD
    0x0800c138   0x0800c138   0x0000007a   Code   RO         1383    .text.HAL_Init      stm32h7xx_hal.o
    0x0800c1b2   0x0800c1b2   0x00000006   PAD
    0x0800c1b8   0x0800c1b8   0x000000dc   Code   RO          236    .text.HAL_InitTick  stm32h7xx_hal_timebase_tim.o
    0x0800c294   0x0800c294   0x00000004   PAD
    0x0800c298   0x0800c298   0x00000032   Code   RO          228    .text.HAL_MspInit   stm32h7xx_hal_msp.o
    0x0800c2ca   0x0800c2ca   0x00000006   PAD
    0x0800c2d0   0x0800c2d0   0x00000014   Code   RO         1322    .text.HAL_NVIC_DisableIRQ  stm32h7xx_hal_cortex.o
    0x0800c2e4   0x0800c2e4   0x00000004   PAD
    0x0800c2e8   0x0800c2e8   0x00000014   Code   RO         1318    .text.HAL_NVIC_EnableIRQ  stm32h7xx_hal_cortex.o
    0x0800c2fc   0x0800c2fc   0x00000004   PAD
    0x0800c300   0x0800c300   0x0000002e   Code   RO         1310    .text.HAL_NVIC_SetPriority  stm32h7xx_hal_cortex.o
    0x0800c32e   0x0800c32e   0x00000002   PAD
    0x0800c330   0x0800c330   0x00000010   Code   RO         1306    .text.HAL_NVIC_SetPriorityGrouping  stm32h7xx_hal_cortex.o
    0x0800c340   0x0800c340   0x00000036   Code   RO          687    .text.HAL_PCDEx_ActivateLPM  stm32h7xx_hal_pcd_ex.o
    0x0800c376   0x0800c376   0x00000002   PAD
    0x0800c378   0x0800c378   0x0000000c   Code   RO          699    .text.HAL_PCDEx_LPM_Callback  stm32h7xx_hal_pcd_ex.o
    0x0800c384   0x0800c384   0x00000004   PAD
    0x0800c388   0x0800c388   0x00000018   Code   RO          685    .text.HAL_PCDEx_SetRxFiFo  stm32h7xx_hal_pcd_ex.o
    0x0800c3a0   0x0800c3a0   0x0000009c   Code   RO          683    .text.HAL_PCDEx_SetTxFiFo  stm32h7xx_hal_pcd_ex.o
    0x0800c43c   0x0800c43c   0x00000004   PAD
    0x0800c440   0x0800c440   0x00000014   Code   RO         4512    .text.HAL_PCD_ConnectCallback  usbd_conf.o
    0x0800c454   0x0800c454   0x00000004   PAD
    0x0800c458   0x0800c458   0x00000026   Code   RO         4498    .text.HAL_PCD_DataInStageCallback  usbd_conf.o
    0x0800c47e   0x0800c47e   0x00000002   PAD
    0x0800c480   0x0800c480   0x00000028   Code   RO         4496    .text.HAL_PCD_DataOutStageCallback  usbd_conf.o
    0x0800c4a8   0x0800c4a8   0x00000014   Code   RO         4514    .text.HAL_PCD_DisconnectCallback  usbd_conf.o
    0x0800c4bc   0x0800c4bc   0x00000004   PAD
    0x0800c4c0   0x0800c4c0   0x0000005e   Code   RO          636    .text.HAL_PCD_EP_Abort  stm32h7xx_hal_pcd.o
    0x0800c51e   0x0800c51e   0x00000002   PAD
    0x0800c520   0x0800c520   0x000000a8   Code   RO          654    .text.HAL_PCD_EP_Close  stm32h7xx_hal_pcd.o
    0x0800c5c8   0x0800c5c8   0x000000c8   Code   RO          664    .text.HAL_PCD_EP_ClrStall  stm32h7xx_hal_pcd.o
    0x0800c690   0x0800c690   0x00000022   Code   RO          658    .text.HAL_PCD_EP_GetRxCount  stm32h7xx_hal_pcd.o
    0x0800c6b2   0x0800c6b2   0x00000006   PAD
    0x0800c6b8   0x0800c6b8   0x000000ee   Code   RO          652    .text.HAL_PCD_EP_Open  stm32h7xx_hal_pcd.o
    0x0800c7a6   0x0800c7a6   0x00000002   PAD
    0x0800c7a8   0x0800c7a8   0x0000006c   Code   RO          656    .text.HAL_PCD_EP_Receive  stm32h7xx_hal_pcd.o
    0x0800c814   0x0800c814   0x00000004   PAD
    0x0800c818   0x0800c818   0x000000de   Code   RO          662    .text.HAL_PCD_EP_SetStall  stm32h7xx_hal_pcd.o
    0x0800c8f6   0x0800c8f6   0x00000002   PAD
    0x0800c8f8   0x0800c8f8   0x0000006c   Code   RO          660    .text.HAL_PCD_EP_Transmit  stm32h7xx_hal_pcd.o
    0x0800c964   0x0800c964   0x00000004   PAD
    0x0800c968   0x0800c968   0x0000088a   Code   RO          614    .text.HAL_PCD_IRQHandler  stm32h7xx_hal_pcd.o
    0x0800d1f2   0x0800d1f2   0x00000006   PAD
    0x0800d1f8   0x0800d1f8   0x0000001c   Code   RO         4510    .text.HAL_PCD_ISOINIncompleteCallback  usbd_conf.o
    0x0800d214   0x0800d214   0x00000004   PAD
    0x0800d218   0x0800d218   0x0000001c   Code   RO         4508    .text.HAL_PCD_ISOOUTIncompleteCallback  usbd_conf.o
    0x0800d234   0x0800d234   0x00000004   PAD
    0x0800d238   0x0800d238   0x0000023a   Code   RO          602    .text.HAL_PCD_Init  stm32h7xx_hal_pcd.o
    0x0800d472   0x0800d472   0x00000006   PAD
    0x0800d478   0x0800d478   0x000000c6   Code   RO         4490    .text.HAL_PCD_MspInit  usbd_conf.o
    0x0800d53e   0x0800d53e   0x00000002   PAD
    0x0800d540   0x0800d540   0x00000052   Code   RO         4502    .text.HAL_PCD_ResetCallback  usbd_conf.o
    0x0800d592   0x0800d592   0x00000006   PAD
    0x0800d598   0x0800d598   0x00000014   Code   RO         4506    .text.HAL_PCD_ResumeCallback  usbd_conf.o
    0x0800d5ac   0x0800d5ac   0x00000004   PAD
    0x0800d5b0   0x0800d5b0   0x00000014   Code   RO         4500    .text.HAL_PCD_SOFCallback  usbd_conf.o
    0x0800d5c4   0x0800d5c4   0x00000004   PAD
    0x0800d5c8   0x0800d5c8   0x0000005c   Code   RO          650    .text.HAL_PCD_SetAddress  stm32h7xx_hal_pcd.o
    0x0800d624   0x0800d624   0x00000004   PAD
    0x0800d628   0x0800d628   0x00000018   Code   RO         4494    .text.HAL_PCD_SetupStageCallback  usbd_conf.o
    0x0800d640   0x0800d640   0x0000007c   Code   RO          610    .text.HAL_PCD_Start  stm32h7xx_hal_pcd.o
    0x0800d6bc   0x0800d6bc   0x00000004   PAD
    0x0800d6c0   0x0800d6c0   0x0000003e   Code   RO         4504    .text.HAL_PCD_SuspendCallback  usbd_conf.o
    0x0800d6fe   0x0800d6fe   0x00000002   PAD
    0x0800d700   0x0800d700   0x000000a2   Code   RO         1223    .text.HAL_PWREx_ConfigSupply  stm32h7xx_hal_pwr_ex.o
    0x0800d7a2   0x0800d7a2   0x00000006   PAD
    0x0800d7a8   0x0800d7a8   0x00000012   Code   RO         1273    .text.HAL_PWREx_EnableUSBVoltageDetector  stm32h7xx_hal_pwr_ex.o
    0x0800d7ba   0x0800d7ba   0x00000006   PAD
    0x0800d7c0   0x0800d7c0   0x00000026   Code   RO          864    .text.HAL_RCCEx_GetD3PCLK1Freq  stm32h7xx_hal_rcc_ex.o
    0x0800d7e6   0x0800d7e6   0x00000002   PAD
    0x0800d7e8   0x0800d7e8   0x000002ac   Code   RO          860    .text.HAL_RCCEx_GetPLL2ClockFreq  stm32h7xx_hal_rcc_ex.o
    0x0800da94   0x0800da94   0x00000004   PAD
    0x0800da98   0x0800da98   0x000002ac   Code   RO          862    .text.HAL_RCCEx_GetPLL3ClockFreq  stm32h7xx_hal_rcc_ex.o
    0x0800dd44   0x0800dd44   0x00000004   PAD
    0x0800dd48   0x0800dd48   0x00000fec   Code   RO          848    .text.HAL_RCCEx_PeriphCLKConfig  stm32h7xx_hal_rcc_ex.o
    0x0800ed34   0x0800ed34   0x00000004   PAD
    0x0800ed38   0x0800ed38   0x00000498   Code   RO          817    .text.HAL_RCC_ClockConfig  stm32h7xx_hal_rcc.o
    0x0800f1d0   0x0800f1d0   0x00000088   Code   RO          835    .text.HAL_RCC_GetClockConfig  stm32h7xx_hal_rcc.o
    0x0800f258   0x0800f258   0x00000056   Code   RO          827    .text.HAL_RCC_GetHCLKFreq  stm32h7xx_hal_rcc.o
    0x0800f2ae   0x0800f2ae   0x00000002   PAD
    0x0800f2b0   0x0800f2b0   0x00000026   Code   RO          829    .text.HAL_RCC_GetPCLK1Freq  stm32h7xx_hal_rcc.o
    0x0800f2d6   0x0800f2d6   0x00000002   PAD
    0x0800f2d8   0x0800f2d8   0x00000026   Code   RO          831    .text.HAL_RCC_GetPCLK2Freq  stm32h7xx_hal_rcc.o
    0x0800f2fe   0x0800f2fe   0x00000002   PAD
    0x0800f300   0x0800f300   0x00000310   Code   RO          819    .text.HAL_RCC_GetSysClockFreq  stm32h7xx_hal_rcc.o
    0x0800f610   0x0800f610   0x00000a20   Code   RO          815    .text.HAL_RCC_OscConfig  stm32h7xx_hal_rcc.o
    0x08010030   0x08010030   0x000000d0   Code   RO         2191    .text.HAL_RS485Ex_Init  stm32h7xx_hal_uart_ex.o
    0x08010100   0x08010100   0x00000008   Code   RO         2003    .text.HAL_SPI_ErrorCallback  stm32h7xx_hal_spi.o
    0x08010108   0x08010108   0x00000390   Code   RO         1999    .text.HAL_SPI_IRQHandler  stm32h7xx_hal_spi.o
    0x08010498   0x08010498   0x00000292   Code   RO         1923    .text.HAL_SPI_Init  stm32h7xx_hal_spi.o
    0x0801072a   0x0801072a   0x00000006   PAD
    0x08010730   0x08010730   0x000001ae   Code   RO           97    .text.HAL_SPI_MspInit  spi.o
    0x080108de   0x080108de   0x00000002   PAD
    0x080108e0   0x080108e0   0x0000009c   Code   RO         3051    .text.HAL_SPI_RxCpltCallback  bsp_spi.o
    0x0801097c   0x0801097c   0x00000004   PAD
    0x08010980   0x08010980   0x00000008   Code   RO         2001    .text.HAL_SPI_SuspendCallback  stm32h7xx_hal_spi.o
    0x08010988   0x08010988   0x000003e4   Code   RO         1933    .text.HAL_SPI_Transmit  stm32h7xx_hal_spi.o
    0x08010d6c   0x08010d6c   0x00000004   PAD
    0x08010d70   0x08010d70   0x00000704   Code   RO         1941    .text.HAL_SPI_TransmitReceive  stm32h7xx_hal_spi.o
    0x08011474   0x08011474   0x00000004   PAD
    0x08011478   0x08011478   0x0000039e   Code   RO         1975    .text.HAL_SPI_TransmitReceive_DMA  stm32h7xx_hal_spi.o
    0x08011816   0x08011816   0x00000002   PAD
    0x08011818   0x08011818   0x0000024a   Code   RO         1959    .text.HAL_SPI_TransmitReceive_IT  stm32h7xx_hal_spi.o
    0x08011a62   0x08011a62   0x00000006   PAD
    0x08011a68   0x08011a68   0x000002aa   Code   RO         1961    .text.HAL_SPI_Transmit_DMA  stm32h7xx_hal_spi.o
    0x08011d12   0x08011d12   0x00000006   PAD
    0x08011d18   0x08011d18   0x0000016a   Code   RO         1943    .text.HAL_SPI_Transmit_IT  stm32h7xx_hal_spi.o
    0x08011e82   0x08011e82   0x00000006   PAD
    0x08011e88   0x08011e88   0x00000008   Code   RO         2009    .text.HAL_SPI_TxCpltCallback  stm32h7xx_hal_spi.o
    0x08011e90   0x08011e90   0x00000008   Code   RO         2013    .text.HAL_SPI_TxHalfCpltCallback  stm32h7xx_hal_spi.o
    0x08011e98   0x08011e98   0x00000010   Code   RO         3053    .text.HAL_SPI_TxRxCpltCallback  bsp_spi.o
    0x08011ea8   0x08011ea8   0x00000008   Code   RO         2017    .text.HAL_SPI_TxRxHalfCpltCallback  stm32h7xx_hal_spi.o
    0x08011eb0   0x08011eb0   0x0000001e   Code   RO         1433    .text.HAL_SYSCFG_AnalogSwitchConfig  stm32h7xx_hal.o
    0x08011ece   0x08011ece   0x00000002   PAD
    0x08011ed0   0x08011ed0   0x00000008   Code   RO          589    .text.HAL_TIMEx_Break2Callback  stm32h7xx_hal_tim_ex.o
    0x08011ed8   0x08011ed8   0x00000008   Code   RO          587    .text.HAL_TIMEx_BreakCallback  stm32h7xx_hal_tim_ex.o
    0x08011ee0   0x08011ee0   0x00000008   Code   RO          583    .text.HAL_TIMEx_CommutCallback  stm32h7xx_hal_tim_ex.o
    0x08011ee8   0x08011ee8   0x0000012e   Code   RO          569    .text.HAL_TIMEx_ConfigBreakDeadTime  stm32h7xx_hal_tim_ex.o
    0x08012016   0x08012016   0x00000002   PAD
    0x08012018   0x08012018   0x0000017c   Code   RO          567    .text.HAL_TIMEx_MasterConfigSynchronization  stm32h7xx_hal_tim_ex.o
    0x08012194   0x08012194   0x00000004   PAD
    0x08012198   0x08012198   0x000000a8   Code   RO          250    .text.HAL_TIM_Base_Init  stm32h7xx_hal_tim.o
    0x08012240   0x08012240   0x00000008   Code   RO          252    .text.HAL_TIM_Base_MspInit  stm32h7xx_hal_tim.o
    0x08012248   0x08012248   0x00000128   Code   RO          264    .text.HAL_TIM_Base_Start_IT  stm32h7xx_hal_tim.o
    0x08012370   0x08012370   0x00000008   Code   RO          386    .text.HAL_TIM_IC_CaptureCallback  stm32h7xx_hal_tim.o
    0x08012378   0x08012378   0x00000250   Code   RO          384    .text.HAL_TIM_IRQHandler  stm32h7xx_hal_tim.o
    0x080125c8   0x080125c8   0x00000158   Code   RO          112    .text.HAL_TIM_MspPostInit  tim.o
    0x08012720   0x08012720   0x00000008   Code   RO          388    .text.HAL_TIM_OC_DelayElapsedCallback  stm32h7xx_hal_tim.o
    0x08012728   0x08012728   0x000001b0   Code   RO          420    .text.HAL_TIM_PWM_ConfigChannel  stm32h7xx_hal_tim.o
    0x080128d8   0x080128d8   0x000000a8   Code   RO          304    .text.HAL_TIM_PWM_Init  stm32h7xx_hal_tim.o
    0x08012980   0x08012980   0x000000ce   Code   RO          120    .text.HAL_TIM_PWM_MspInit  tim.o
    0x08012a4e   0x08012a4e   0x00000002   PAD
    0x08012a50   0x08012a50   0x0000009e   Code   RO         2958    .text.HAL_TIM_PWM_PulseFinishedCallback  bsp_pwm.o
    0x08012aee   0x08012aee   0x00000002   PAD
    0x08012af0   0x08012af0   0x000002a2   Code   RO          312    .text.HAL_TIM_PWM_Start  stm32h7xx_hal_tim.o
    0x08012d92   0x08012d92   0x00000006   PAD
    0x08012d98   0x08012d98   0x00000022   Code   RO           17    .text.HAL_TIM_PeriodElapsedCallback  main.o
    0x08012dba   0x08012dba   0x00000006   PAD
    0x08012dc0   0x08012dc0   0x00000008   Code   RO          394    .text.HAL_TIM_TriggerCallback  stm32h7xx_hal_tim.o
    0x08012dc8   0x08012dc8   0x0000007c   Code   RO         2213    .text.HAL_UARTEx_DisableFifoMode  stm32h7xx_hal_uart_ex.o
    0x08012e44   0x08012e44   0x00000004   PAD
    0x08012e48   0x08012e48   0x000000b0   Code   RO         2223    .text.HAL_UARTEx_ReceiveToIdle_DMA  stm32h7xx_hal_uart_ex.o
    0x08012ef8   0x08012ef8   0x000003a0   Code   RO         3028    .text.HAL_UARTEx_RxEventCallback  bsp_usart.o
    0x08013298   0x08013298   0x00000008   Code   RO         2195    .text.HAL_UARTEx_RxFifoFullCallback  stm32h7xx_hal_uart_ex.o
    0x080132a0   0x080132a0   0x0000008c   Code   RO         2217    .text.HAL_UARTEx_SetRxFifoThreshold  stm32h7xx_hal_uart_ex.o
    0x0801332c   0x0801332c   0x00000004   PAD
    0x08013330   0x08013330   0x0000008c   Code   RO         2215    .text.HAL_UARTEx_SetTxFifoThreshold  stm32h7xx_hal_uart_ex.o
    0x080133bc   0x080133bc   0x00000004   PAD
    0x080133c0   0x080133c0   0x00000008   Code   RO         2197    .text.HAL_UARTEx_TxFifoEmptyCallback  stm32h7xx_hal_uart_ex.o
    0x080133c8   0x080133c8   0x00000008   Code   RO         2193    .text.HAL_UARTEx_WakeupCallback  stm32h7xx_hal_uart_ex.o
    0x080133d0   0x080133d0   0x00000120   Code   RO         2099    .text.HAL_UART_DMAStop  stm32h7xx_hal_uart.o
    0x080134f0   0x080134f0   0x0000007c   Code   RO         2059    .text.HAL_UART_DeInit  stm32h7xx_hal_uart.o
    0x0801356c   0x0801356c   0x00000004   PAD
    0x08013570   0x08013570   0x00000460   Code   RO         3030    .text.HAL_UART_ErrorCallback  bsp_usart.o
    0x080139d0   0x080139d0   0x000006fe   Code   RO         2131    .text.HAL_UART_IRQHandler  stm32h7xx_hal_uart.o
    0x080140ce   0x080140ce   0x00000002   PAD
    0x080140d0   0x080140d0   0x000000aa   Code   RO         2043    .text.HAL_UART_Init  stm32h7xx_hal_uart.o
    0x0801417a   0x0801417a   0x00000006   PAD
    0x08014180   0x08014180   0x000001b6   Code   RO          149    .text.HAL_UART_MspDeInit  usart.o
    0x08014336   0x08014336   0x00000002   PAD
    0x08014338   0x08014338   0x00000634   Code   RO          147    .text.HAL_UART_MspInit  usart.o
    0x0801496c   0x0801496c   0x00000004   PAD
    0x08014970   0x08014970   0x00000008   Code   RO         3444    .text.HAL_UART_RxCpltCallback  rs485.o
    0x08014978   0x08014978   0x00000008   Code   RO         2147    .text.HAL_UART_RxHalfCpltCallback  stm32h7xx_hal_uart.o
    0x08014980   0x08014980   0x00000138   Code   RO         2063    .text.HAL_UART_Transmit  stm32h7xx_hal_uart.o
    0x08014ab8   0x08014ab8   0x00000108   Code   RO         2083    .text.HAL_UART_Transmit_DMA  stm32h7xx_hal_uart.o
    0x08014bc0   0x08014bc0   0x00000130   Code   RO         2069    .text.HAL_UART_Transmit_IT  stm32h7xx_hal_uart.o
    0x08014cf0   0x08014cf0   0x00000040   Code   RO         3448    .text.HAL_UART_TxCpltCallback  rs485.o
    0x08014d30   0x08014d30   0x00000008   Code   RO         2143    .text.HAL_UART_TxHalfCpltCallback  stm32h7xx_hal_uart.o
    0x08014d38   0x08014d38   0x0000018e   Code   RO         3726    .text.H_K_R_Adjustment  kalman_filter.o
    0x08014ec6   0x08014ec6   0x00000002   PAD
    0x08014ec8   0x08014ec8   0x00000004   Code   RO          171    .text.HardFault_Handler  stm32h7xx_it.o
    0x08014ecc   0x08014ecc   0x00000004   PAD
    0x08014ed0   0x08014ed0   0x00000260   Code   RO         3683    .text.IMU_QuaternionEKF_F_Linearization_P_Fading  quaternionekf.o
    0x08015130   0x08015130   0x0000014e   Code   RO         3679    .text.IMU_QuaternionEKF_Init  quaternionekf.o
    0x0801527e   0x0801527e   0x00000002   PAD
    0x08015280   0x08015280   0x00000048   Code   RO         3681    .text.IMU_QuaternionEKF_Observe  quaternionekf.o
    0x080152c8   0x080152c8   0x00000162   Code   RO         3685    .text.IMU_QuaternionEKF_SetH  quaternionekf.o
    0x0801542a   0x0801542a   0x00000006   PAD
    0x08015430   0x08015430   0x000005b4   Code   RO         3689    .text.IMU_QuaternionEKF_Update  quaternionekf.o
    0x080159e4   0x080159e4   0x00000004   PAD
    0x080159e8   0x080159e8   0x00000660   Code   RO         3687    .text.IMU_QuaternionEKF_xhatUpdate  quaternionekf.o
    0x08016048   0x08016048   0x000003dc   Code   RO         4196    .text.INS_Calculate  ins.o
    0x08016424   0x08016424   0x00000004   PAD
    0x08016428   0x08016428   0x0000001a   Code   RO         4190    .text.INS_Data_Update  ins.o
    0x08016442   0x08016442   0x00000006   PAD
    0x08016448   0x08016448   0x00000058   Code   RO         4192    .text.INS_Init      ins.o
    0x080164a0   0x080164a0   0x00000098   Code   RO         4225    .text.INS_Task      ins_task.o
    0x08016538   0x08016538   0x00000088   Code   RO         4223    .text.INS_Task_Init  ins_task.o
    0x080165c0   0x080165c0   0x0000007a   Code   RO         4449    .text.IntToUnicode  usbd_desc.o
    0x0801663a   0x0801663a   0x00000006   PAD
    0x08016640   0x08016640   0x000005f2   Code   RO         3722    .text.Kalman_Filter_Init  kalman_filter.o
    0x08016c32   0x08016c32   0x00000006   PAD
    0x08016c38   0x08016c38   0x00000062   Code   RO         3724    .text.Kalman_Filter_Measure  kalman_filter.o
    0x08016c9a   0x08016c9a   0x00000006   PAD
    0x08016ca0   0x08016ca0   0x00000080   Code   RO         3736    .text.Kalman_Filter_P_Update  kalman_filter.o
    0x08016d20   0x08016d20   0x0000007e   Code   RO         3730    .text.Kalman_Filter_PminusUpdate  kalman_filter.o
    0x08016d9e   0x08016d9e   0x00000002   PAD
    0x08016da0   0x08016da0   0x000000fa   Code   RO         3732    .text.Kalman_Filter_SetK  kalman_filter.o
    0x08016e9a   0x08016e9a   0x00000006   PAD
    0x08016ea0   0x08016ea0   0x00000190   Code   RO         3738    .text.Kalman_Filter_Update  kalman_filter.o
    0x08017030   0x08017030   0x000000a2   Code   RO         3728    .text.Kalman_Filter_xhatMinusUpdate  kalman_filter.o
    0x080170d2   0x080170d2   0x00000006   PAD
    0x080170d8   0x080170d8   0x000000ac   Code   RO         3734    .text.Kalman_Filter_xhatUpdate  kalman_filter.o
    0x08017184   0x08017184   0x00000004   PAD
    0x08017188   0x08017188   0x00000098   Code   RO         3751    .text.Kalman_One_Filter  kalman_one_filter.o
    0x08017220   0x08017220   0x00000032   Code   RO         3749    .text.Kalman_One_Init  kalman_one_filter.o
    0x08017252   0x08017252   0x00000006   PAD
    0x08017258   0x08017258   0x00000638   Code   RO         4293    .text.KeyboardCtrl  control_task.o
    0x08017890   0x08017890   0x000000a2   Code   RO           50    .text.MX_DMA_Init   dma.o
    0x08017932   0x08017932   0x00000006   PAD
    0x08017938   0x08017938   0x0000007e   Code   RO           58    .text.MX_FDCAN1_Init  fdcan.o
    0x080179b6   0x080179b6   0x00000002   PAD
    0x080179b8   0x080179b8   0x00000084   Code   RO           60    .text.MX_FDCAN2_Init  fdcan.o
    0x08017a3c   0x08017a3c   0x00000004   PAD
    0x08017a40   0x08017a40   0x00000084   Code   RO           62    .text.MX_FDCAN3_Init  fdcan.o
    0x08017ac4   0x08017ac4   0x00000004   PAD
    0x08017ac8   0x08017ac8   0x00000024   Code   RO           35    .text.MX_FREERTOS_Init  freertos.o
    0x08017aec   0x08017aec   0x00000004   PAD
    0x08017af0   0x08017af0   0x00000158   Code   RO           27    .text.MX_GPIO_Init  gpio.o
    0x08017c48   0x08017c48   0x00000076   Code   RO           79    .text.MX_I2C2_Init  i2c.o
    0x08017cbe   0x08017cbe   0x00000002   PAD
    0x08017cc0   0x08017cc0   0x00000072   Code   RO           93    .text.MX_SPI2_Init  spi.o
    0x08017d32   0x08017d32   0x00000006   PAD
    0x08017d38   0x08017d38   0x00000072   Code   RO           95    .text.MX_SPI6_Init  spi.o
    0x08017daa   0x08017daa   0x00000006   PAD
    0x08017db0   0x08017db0   0x000000a4   Code   RO          118    .text.MX_TIM12_Init  tim.o
    0x08017e54   0x08017e54   0x00000004   PAD
    0x08017e58   0x08017e58   0x00000104   Code   RO          110    .text.MX_TIM1_Init  tim.o
    0x08017f5c   0x08017f5c   0x00000004   PAD
    0x08017f60   0x08017f60   0x000000b2   Code   RO          114    .text.MX_TIM2_Init  tim.o
    0x08018012   0x08018012   0x00000006   PAD
    0x08018018   0x08018018   0x000000a0   Code   RO          116    .text.MX_TIM3_Init  tim.o
    0x080180b8   0x080180b8   0x00000098   Code   RO          135    .text.MX_UART5_Init  usart.o
    0x08018150   0x08018150   0x0000008e   Code   RO          137    .text.MX_UART7_Init  usart.o
    0x080181de   0x080181de   0x00000002   PAD
    0x080181e0   0x080181e0   0x0000008e   Code   RO          145    .text.MX_USART10_UART_Init  usart.o
    0x0801826e   0x0801826e   0x00000002   PAD
    0x08018270   0x08018270   0x0000008e   Code   RO          139    .text.MX_USART1_UART_Init  usart.o
    0x080182fe   0x080182fe   0x00000002   PAD
    0x08018300   0x08018300   0x0000008e   Code   RO          141    .text.MX_USART2_UART_Init  usart.o
    0x0801838e   0x0801838e   0x00000002   PAD
    0x08018390   0x08018390   0x00000092   Code   RO          143    .text.MX_USART3_UART_Init  usart.o
    0x08018422   0x08018422   0x00000006   PAD
    0x08018428   0x08018428   0x0000007a   Code   RO         4422    .text.MX_USB_DEVICE_Init  usb_device.o
    0x080184a2   0x080184a2   0x00000006   PAD
    0x080184a8   0x080184a8   0x000000cc   Code   RO         3999    .text.Mecanum_Solve  chassis.o
    0x08018574   0x08018574   0x00000004   PAD
    0x08018578   0x08018578   0x00000004   Code   RO          173    .text.MemManage_Handler  stm32h7xx_it.o
    0x0801857c   0x0801857c   0x00000004   PAD
    0x08018580   0x08018580   0x000000a0   Code   RO         3204    .text.Mode_handle   buzzer.o
    0x08018620   0x08018620   0x000001f2   Code   RO         3326    .text.Motor_Sender_Grouping  dji_motor.o
    0x08018812   0x08018812   0x00000006   PAD
    0x08018818   0x08018818   0x00000004   Code   RO          169    .text.NMI_Handler   stm32h7xx_it.o
    0x0801881c   0x0801881c   0x00000004   PAD
    0x08018820   0x08018820   0x0000006c   Code   RO         1316    .text.NVIC_EncodePriority  stm32h7xx_hal_cortex.o
    0x0801888c   0x0801888c   0x00000004   PAD
    0x08018890   0x08018890   0x00000074   Code   RO         4335    .text.NV_UnPack_Data_ROS2  serial.o
    0x08018904   0x08018904   0x00000004   PAD
    0x08018908   0x08018908   0x00000064   Code   RO         3561    .text.Norm3d        user_lib.o
    0x0801896c   0x0801896c   0x00000004   PAD
    0x08018970   0x08018970   0x00000028   Code   RO         3563    .text.NormOf3d      user_lib.o
    0x08018998   0x08018998   0x00000012   Code   RO         4058    .text.Not_Climbing_Hill  gimbal.o
    0x080189aa   0x080189aa   0x00000006   PAD
    0x080189b0   0x080189b0   0x00000160   Code   RO         3208    .text.NotePlay      buzzer.o
    0x08018b10   0x08018b10   0x00000134   Code   RO         3210    .text.Note_handle   buzzer.o
    0x08018c44   0x08018c44   0x00000004   PAD
    0x08018c48   0x08018c48   0x00000010   Code   RO          211    .text.OTG_HS_IRQHandler  stm32h7xx_it.o
    0x08018c58   0x08018c58   0x0000008a   Code   RO          618    .text.PCD_EP_OutSetupPacket_int  stm32h7xx_hal_pcd.o
    0x08018ce2   0x08018ce2   0x00000006   PAD
    0x08018ce8   0x08018ce8   0x000001c8   Code   RO          616    .text.PCD_EP_OutXfrComplete_int  stm32h7xx_hal_pcd.o
    0x08018eb0   0x08018eb0   0x00000132   Code   RO          626    .text.PCD_WriteEmptyTxFifo  stm32h7xx_hal_pcd.o
    0x08018fe2   0x08018fe2   0x00000006   PAD
    0x08018fe8   0x08018fe8   0x0000013e   Code   RO         3528    .text.PID_Increment  pid.o
    0x08019126   0x08019126   0x00000002   PAD
    0x08019128   0x08019128   0x00000060   Code   RO         3522    .text.PID_Init      pid.o
    0x08019188   0x08019188   0x00000200   Code   RO         3526    .text.PID_Position  pid.o
    0x08019388   0x08019388   0x000000b0   Code   RO         2960    .text.PWM_Register  bsp_pwm.o
    0x08019438   0x08019438   0x000000c8   Code   RO         2962    .text.PWM_Select_Tclk  bsp_pwm.o
    0x08019500   0x08019500   0x00000158   Code   RO         2966    .text.PWM_Set_DutyRatio  bsp_pwm.o
    0x08019658   0x08019658   0x0000005e   Code   RO         2964    .text.PWM_Set_Period  bsp_pwm.o
    0x080196b6   0x080196b6   0x0000000a   PAD
    0x080196c0   0x080196c0   0x00000064   Code   RO         2906    .text.PendSV_Handler  port.o
    0x08019724   0x08019724   0x00000004   PAD
    0x08019728   0x08019728   0x00000034   Code   RO         4268    .text.Procotol_Task  procotol_task.o
    0x0801975c   0x0801975c   0x00000004   PAD
    0x08019760   0x08019760   0x00000088   Code   RO         4266    .text.Procotol_Task_Init  procotol_task.o
    0x080197e8   0x080197e8   0x00000096   Code   RO         3124    .text.Publisher_Register  message_center.o
    0x0801987e   0x0801987e   0x00000002   PAD
    0x08019880   0x08019880   0x000001ca   Code   RO          850    .text.RCCEx_PLL2_Config  stm32h7xx_hal_rcc_ex.o
    0x08019a4a   0x08019a4a   0x00000006   PAD
    0x08019a50   0x08019a50   0x000001ca   Code   RO          852    .text.RCCEx_PLL3_Config  stm32h7xx_hal_rcc_ex.o
    0x08019c1a   0x08019c1a   0x00000006   PAD
    0x08019c20   0x08019c20   0x00000026   Code   RO         3304    .text.RC_Lost_Callback  remote_control.o
    0x08019c46   0x08019c46   0x00000002   PAD
    0x08019c48   0x08019c48   0x000000dc   Code   RO         3760    .text.Ramp_data1    ramp.o
    0x08019d24   0x08019d24   0x00000004   PAD
    0x08019d28   0x08019d28   0x000000dc   Code   RO         3762    .text.Ramp_data2    ramp.o
    0x08019e04   0x08019e04   0x00000004   PAD
    0x08019e08   0x08019e08   0x000000dc   Code   RO         3764    .text.Ramp_data3    ramp.o
    0x08019ee4   0x08019ee4   0x00000004   PAD
    0x08019ee8   0x08019ee8   0x000000dc   Code   RO         3766    .text.Ramp_data4    ramp.o
    0x08019fc4   0x08019fc4   0x00000004   PAD
    0x08019fc8   0x08019fc8   0x00000064   Code   RO         3308    .text.Rectify_RC_joystick  remote_control.o
    0x0801a02c   0x0801a02c   0x00000004   PAD
    0x0801a030   0x0801a030   0x0000049e   Code   RO         3483    .text.RefereeSolve  referee.o
    0x0801a4ce   0x0801a4ce   0x00000002   PAD
    0x0801a4d0   0x0801a4d0   0x00000022   Code   RO         3489    .text.RefereeSolve_Rx_Callback  referee.o
    0x0801a4f2   0x0801a4f2   0x00000006   PAD
    0x0801a4f8   0x0801a4f8   0x00000068   Code   RO         3487    .text.Referee_Init  referee.o
    0x0801a560   0x0801a560   0x00000028   Code   RO         3491    .text.Referee_Lost_Callback  referee.o
    0x0801a588   0x0801a588   0x00000066   Code   RO         3300    .text.Remote_Control_Init  remote_control.o
    0x0801a5ee   0x0801a5ee   0x00000002   PAD
    0x0801a5f0   0x0801a5f0   0x00000022   Code   RO         3302    .text.Remote_Control_Rx_Callback  remote_control.o
    0x0801a612   0x0801a612   0x00000006   PAD
    0x0801a618   0x0801a618   0x00000010   Code   RO         3981    .text.Robot_Frame_Init  robot_frame_init.o
    0x0801a628   0x0801a628   0x00000010   Code   RO          197    .text.SPI2_IRQHandler  stm32h7xx_it.o
    0x0801a638   0x0801a638   0x00000116   Code   RO         1935    .text.SPI_CloseTransfer  stm32h7xx_hal_spi.o
    0x0801a74e   0x0801a74e   0x00000002   PAD
    0x0801a750   0x0801a750   0x0000002c   Code   RO         2011    .text.SPI_DMAAbortOnError  stm32h7xx_hal_spi.o
    0x0801a77c   0x0801a77c   0x00000004   PAD
    0x0801a780   0x0801a780   0x00000040   Code   RO         1967    .text.SPI_DMAError  stm32h7xx_hal_spi.o
    0x0801a7c0   0x0801a7c0   0x00000016   Code   RO         1963    .text.SPI_DMAHalfTransmitCplt  stm32h7xx_hal_spi.o
    0x0801a7d6   0x0801a7d6   0x00000002   PAD
    0x0801a7d8   0x0801a7d8   0x00000016   Code   RO         1977    .text.SPI_DMAHalfTransmitReceiveCplt  stm32h7xx_hal_spi.o
    0x0801a7ee   0x0801a7ee   0x00000002   PAD
    0x0801a7f0   0x0801a7f0   0x00000042   Code   RO         1965    .text.SPI_DMATransmitCplt  stm32h7xx_hal_spi.o
    0x0801a832   0x0801a832   0x00000006   PAD
    0x0801a838   0x0801a838   0x00000042   Code   RO         1979    .text.SPI_DMATransmitReceiveCplt  stm32h7xx_hal_spi.o
    0x0801a87a   0x0801a87a   0x00000006   PAD
    0x0801a880   0x0801a880   0x0000002a   Code   RO         1925    .text.SPI_GetPacketSize  stm32h7xx_hal_spi.o
    0x0801a8aa   0x0801a8aa   0x00000006   PAD
    0x0801a8b0   0x0801a8b0   0x00000086   Code   RO         3041    .text.SPI_Register  bsp_spi.o
    0x0801a936   0x0801a936   0x00000002   PAD
    0x0801a938   0x0801a938   0x00000046   Code   RO         1955    .text.SPI_RxISR_16BIT  stm32h7xx_hal_spi.o
    0x0801a97e   0x0801a97e   0x00000002   PAD
    0x0801a980   0x0801a980   0x00000040   Code   RO         1953    .text.SPI_RxISR_32BIT  stm32h7xx_hal_spi.o
    0x0801a9c0   0x0801a9c0   0x00000042   Code   RO         1957    .text.SPI_RxISR_8BIT  stm32h7xx_hal_spi.o
    0x0801aa02   0x0801aa02   0x00000006   PAD
    0x0801aa08   0x0801aa08   0x00000044   Code   RO         3049    .text.SPI_Set_Mode  bsp_spi.o
    0x0801aa4c   0x0801aa4c   0x00000004   PAD
    0x0801aa50   0x0801aa50   0x0000007c   Code   RO         3043    .text.SPI_Transmit  bsp_spi.o
    0x0801aacc   0x0801aacc   0x00000004   PAD
    0x0801aad0   0x0801aad0   0x000000ac   Code   RO         3047    .text.SPI_Transmit_Receive  bsp_spi.o
    0x0801ab7c   0x0801ab7c   0x00000004   PAD
    0x0801ab80   0x0801ab80   0x00000046   Code   RO         1947    .text.SPI_TxISR_16BIT  stm32h7xx_hal_spi.o
    0x0801abc6   0x0801abc6   0x00000002   PAD
    0x0801abc8   0x0801abc8   0x0000003e   Code   RO         1945    .text.SPI_TxISR_32BIT  stm32h7xx_hal_spi.o
    0x0801ac06   0x0801ac06   0x00000002   PAD
    0x0801ac08   0x0801ac08   0x00000040   Code   RO         1949    .text.SPI_TxISR_8BIT  stm32h7xx_hal_spi.o
    0x0801ac48   0x0801ac48   0x00000068   Code   RO         1937    .text.SPI_WaitOnFlagUntilTimeout  stm32h7xx_hal_spi.o
    0x0801acb0   0x0801acb0   0x00000024   Code   RO         2890    .text.SVC_Handler   port.o
    0x0801acd4   0x0801acd4   0x00000004   PAD
    0x0801acd8   0x0801acd8   0x0000000e   Code   RO         2686    .text.SVC_Setup     cmsis_os2.o
    0x0801ace6   0x0801ace6   0x00000002   PAD
    0x0801ace8   0x0801ace8   0x00000036   Code   RO         4640    .text.SWAPBYTE      usbd_ctlreq.o
    0x0801ad1e   0x0801ad1e   0x00000002   PAD
    0x0801ad20   0x0801ad20   0x0000013e   Code   RO         4125    .text.Shoot_Control_Remote  shoot.o
    0x0801ae5e   0x0801ae5e   0x00000002   PAD
    0x0801ae60   0x0801ae60   0x00000040   Code   RO         4117    .text.Shoot_Enable  shoot.o
    0x0801aea0   0x0801aea0   0x0000005c   Code   RO         4115    .text.Shoot_Init    shoot.o
    0x0801aefc   0x0801aefc   0x00000004   PAD
    0x0801af00   0x0801af00   0x0000000e   Code   RO         3415    .text.Shoot_Motor_Enable  shoot_motor.o
    0x0801af0e   0x0801af0e   0x00000002   PAD
    0x0801af10   0x0801af10   0x000000ae   Code   RO         3421    .text.Shoot_Motor_Init  shoot_motor.o
    0x0801afbe   0x0801afbe   0x00000002   PAD
    0x0801afc0   0x0801afc0   0x00000046   Code   RO         3427    .text.Shoot_Motor_Lost_Callback  shoot_motor.o
    0x0801b006   0x0801b006   0x00000002   PAD
    0x0801b008   0x0801b008   0x0000001c   Code   RO         3425    .text.Shoot_Motor_Receive  shoot_motor.o
    0x0801b024   0x0801b024   0x00000004   PAD
    0x0801b028   0x0801b028   0x000000cc   Code   RO         3413    .text.Shoot_Motor_Send  shoot_motor.o
    0x0801b0f4   0x0801b0f4   0x00000004   PAD
    0x0801b0f8   0x0801b0f8   0x0000001c   Code   RO         3423    .text.Shoot_Motor_Sender_Grouping  shoot_motor.o
    0x0801b114   0x0801b114   0x00000004   PAD
    0x0801b118   0x0801b118   0x00000014   Code   RO         3419    .text.Shoot_Motor_SetTar  shoot_motor.o
    0x0801b12c   0x0801b12c   0x00000004   PAD
    0x0801b130   0x0801b130   0x0000000e   Code   RO         3417    .text.Shoot_Motor_Stop  shoot_motor.o
    0x0801b13e   0x0801b13e   0x00000002   PAD
    0x0801b140   0x0801b140   0x0000003a   Code   RO         4121    .text.Shoot_Set_All_Friction  shoot.o
    0x0801b17a   0x0801b17a   0x00000006   PAD
    0x0801b180   0x0801b180   0x00000040   Code   RO         4119    .text.Shoot_Stop    shoot.o
    0x0801b1c0   0x0801b1c0   0x00000034   Code   RO         4149    .text.Shoot_Task    shoot_task.o
    0x0801b1f4   0x0801b1f4   0x00000004   PAD
    0x0801b1f8   0x0801b1f8   0x00000088   Code   RO         4147    .text.Shoot_Task_Init  shoot_task.o
    0x0801b280   0x0801b280   0x000000bc   Code   RO         3543    .text.Sqrt          user_lib.o
    0x0801b33c   0x0801b33c   0x00000004   PAD
    0x0801b340   0x0801b340   0x00000070   Code   RO           37    .text.StartDefaultTask  freertos.o
    0x0801b3b0   0x0801b3b0   0x00000092   Code   RO         3130    .text.Subscriber_Register  message_center.o
    0x0801b442   0x0801b442   0x00000006   PAD
    0x0801b448   0x0801b448   0x0000005c   Code   RO         4400    .text.SuperCap_Enable  supercap.o
    0x0801b4a4   0x0801b4a4   0x00000004   PAD
    0x0801b4a8   0x0801b4a8   0x0000001a   Code   RO         4396    .text.Super_Power_Init  supercap.o
    0x0801b4c2   0x0801b4c2   0x00000006   PAD
    0x0801b4c8   0x0801b4c8   0x0000005e   Code   RO         3109    .text.Supervisor_Register  defense_center.o
    0x0801b526   0x0801b526   0x00000002   PAD
    0x0801b528   0x0801b528   0x0000000e   Code   RO         3111    .text.Supervisor_Reload  defense_center.o
    0x0801b536   0x0801b536   0x00000002   PAD
    0x0801b538   0x0801b538   0x0000001e   Code   RO         2676    .text.SysTick_Handler  cmsis_os2.o
    0x0801b556   0x0801b556   0x00000002   PAD
    0x0801b558   0x0801b558   0x000000d0   Code   RO           13    .text.SystemClock_Config  main.o
    0x0801b628   0x0801b628   0x00000166   Code   RO         2236    .text.SystemInit    system_stm32h7xx.o
    0x0801b78e   0x0801b78e   0x00000002   PAD
    0x0801b790   0x0801b790   0x00000010   Code   RO          207    .text.TIM7_IRQHandler  stm32h7xx_it.o
    0x0801b7a0   0x0801b7a0   0x000001c4   Code   RO          254    .text.TIM_Base_SetConfig  stm32h7xx_hal_tim.o
    0x0801b964   0x0801b964   0x00000004   PAD
    0x0801b968   0x0801b968   0x00000036   Code   RO          288    .text.TIM_CCxChannelCmd  stm32h7xx_hal_tim.o
    0x0801b99e   0x0801b99e   0x00000002   PAD
    0x0801b9a0   0x0801b9a0   0x00000150   Code   RO          398    .text.TIM_OC1_SetConfig  stm32h7xx_hal_tim.o
    0x0801baf0   0x0801baf0   0x0000016c   Code   RO          400    .text.TIM_OC2_SetConfig  stm32h7xx_hal_tim.o
    0x0801bc5c   0x0801bc5c   0x00000004   PAD
    0x0801bc60   0x0801bc60   0x0000016a   Code   RO          402    .text.TIM_OC3_SetConfig  stm32h7xx_hal_tim.o
    0x0801bdca   0x0801bdca   0x00000006   PAD
    0x0801bdd0   0x0801bdd0   0x000000da   Code   RO          404    .text.TIM_OC4_SetConfig  stm32h7xx_hal_tim.o
    0x0801beaa   0x0801beaa   0x00000006   PAD
    0x0801beb0   0x0801beb0   0x000000d0   Code   RO          406    .text.TIM_OC5_SetConfig  stm32h7xx_hal_tim.o
    0x0801bf80   0x0801bf80   0x000000d2   Code   RO          408    .text.TIM_OC6_SetConfig  stm32h7xx_hal_tim.o
    0x0801c052   0x0801c052   0x00000006   PAD
    0x0801c058   0x0801c058   0x00000010   Code   RO          205    .text.UART5_IRQHandler  stm32h7xx_it.o
    0x0801c068   0x0801c068   0x00000010   Code   RO          213    .text.UART7_IRQHandler  stm32h7xx_it.o
    0x0801c078   0x0801c078   0x00000086   Code   RO         2211    .text.UARTEx_SetNbDataToProcess  stm32h7xx_hal_uart_ex.o
    0x0801c0fe   0x0801c0fe   0x00000002   PAD
    0x0801c100   0x0801c100   0x00000148   Code   RO         2047    .text.UART_AdvFeatureConfig  stm32h7xx_hal_uart.o
    0x0801c248   0x0801c248   0x00000146   Code   RO         2051    .text.UART_CheckIdleState  stm32h7xx_hal_uart.o
    0x0801c38e   0x0801c38e   0x00000002   PAD
    0x0801c390   0x0801c390   0x0000001e   Code   RO         2133    .text.UART_DMAAbortOnError  stm32h7xx_hal_uart.o
    0x0801c3ae   0x0801c3ae   0x00000002   PAD
    0x0801c3b0   0x0801c3b0   0x00000080   Code   RO         2089    .text.UART_DMAError  stm32h7xx_hal_uart.o
    0x0801c430   0x0801c430   0x000000f6   Code   RO         2179    .text.UART_DMAReceiveCplt  stm32h7xx_hal_uart.o
    0x0801c526   0x0801c526   0x00000002   PAD
    0x0801c528   0x0801c528   0x00000036   Code   RO         2181    .text.UART_DMARxHalfCplt  stm32h7xx_hal_uart.o
    0x0801c55e   0x0801c55e   0x00000002   PAD
    0x0801c560   0x0801c560   0x0000007a   Code   RO         2085    .text.UART_DMATransmitCplt  stm32h7xx_hal_uart.o
    0x0801c5da   0x0801c5da   0x00000006   PAD
    0x0801c5e0   0x0801c5e0   0x00000016   Code   RO         2087    .text.UART_DMATxHalfCplt  stm32h7xx_hal_uart.o
    0x0801c5f6   0x0801c5f6   0x00000002   PAD
    0x0801c5f8   0x0801c5f8   0x0000009e   Code   RO         2103    .text.UART_EndRxTransfer  stm32h7xx_hal_uart.o
    0x0801c696   0x0801c696   0x00000002   PAD
    0x0801c698   0x0801c698   0x00000044   Code   RO         2139    .text.UART_EndTransmit_IT  stm32h7xx_hal_uart.o
    0x0801c6dc   0x0801c6dc   0x00000004   PAD
    0x0801c6e0   0x0801c6e0   0x0000005c   Code   RO         2101    .text.UART_EndTxTransfer  stm32h7xx_hal_uart.o
    0x0801c73c   0x0801c73c   0x00000004   PAD
    0x0801c740   0x0801c740   0x00000a4e   Code   RO         2049    .text.UART_SetConfig  stm32h7xx_hal_uart.o
    0x0801d18e   0x0801d18e   0x00000002   PAD
    0x0801d190   0x0801d190   0x0000012e   Code   RO         2093    .text.UART_Start_Receive_DMA  stm32h7xx_hal_uart.o
    0x0801d2be   0x0801d2be   0x00000002   PAD
    0x0801d2c0   0x0801d2c0   0x00000098   Code   RO         2075    .text.UART_TxISR_16BIT  stm32h7xx_hal_uart.o
    0x0801d358   0x0801d358   0x000000ce   Code   RO         2071    .text.UART_TxISR_16BIT_FIFOEN  stm32h7xx_hal_uart.o
    0x0801d426   0x0801d426   0x00000002   PAD
    0x0801d428   0x0801d428   0x0000008e   Code   RO         2077    .text.UART_TxISR_8BIT  stm32h7xx_hal_uart.o
    0x0801d4b6   0x0801d4b6   0x00000002   PAD
    0x0801d4b8   0x0801d4b8   0x000000c4   Code   RO         2073    .text.UART_TxISR_8BIT_FIFOEN  stm32h7xx_hal_uart.o
    0x0801d57c   0x0801d57c   0x00000004   PAD
    0x0801d580   0x0801d580   0x0000010c   Code   RO         2065    .text.UART_WaitOnFlagUntilTimeout  stm32h7xx_hal_uart.o
    0x0801d68c   0x0801d68c   0x00000004   PAD
    0x0801d690   0x0801d690   0x00000192   Code   RO         3789    .text.UI_Task       ui.o
    0x0801d822   0x0801d822   0x00000006   PAD
    0x0801d828   0x0801d828   0x00000088   Code   RO         3787    .text.UI_Task_Init  ui.o
    0x0801d8b0   0x0801d8b0   0x00000010   Code   RO          215    .text.USART10_IRQHandler  stm32h7xx_it.o
    0x0801d8c0   0x0801d8c0   0x00000010   Code   RO          199    .text.USART1_IRQHandler  stm32h7xx_it.o
    0x0801d8d0   0x0801d8d0   0x00000010   Code   RO          201    .text.USART2_IRQHandler  stm32h7xx_it.o
    0x0801d8e0   0x0801d8e0   0x00000010   Code   RO          203    .text.USART3_IRQHandler  stm32h7xx_it.o
    0x0801d8f0   0x0801d8f0   0x000000ce   Code   RO         3020    .text.USART_Register  bsp_usart.o
    0x0801d9be   0x0801d9be   0x00000002   PAD
    0x0801d9c0   0x0801d9c0   0x0000006e   Code   RO         3022    .text.USART_Send    bsp_usart.o
    0x0801da2e   0x0801da2e   0x00000002   PAD
    0x0801da30   0x0801da30   0x000001e2   Code   RO         3018    .text.USART_Service_Init  bsp_usart.o
    0x0801dc12   0x0801dc12   0x00000006   PAD
    0x0801dc18   0x0801dc18   0x000000f4   Code   RO         4683    .text.USBD_CDC_DataIn  usbd_cdc.o
    0x0801dd0c   0x0801dd0c   0x00000004   PAD
    0x0801dd10   0x0801dd10   0x00000070   Code   RO         4685    .text.USBD_CDC_DataOut  usbd_cdc.o
    0x0801dd80   0x0801dd80   0x000000ec   Code   RO         4677    .text.USBD_CDC_DeInit  usbd_cdc.o
    0x0801de6c   0x0801de6c   0x00000004   PAD
    0x0801de70   0x0801de70   0x00000078   Code   RO         4681    .text.USBD_CDC_EP0_RxReady  usbd_cdc.o
    0x0801dee8   0x0801dee8   0x00000016   Code   RO         4693    .text.USBD_CDC_GetDeviceQualifierDescriptor  usbd_cdc.o
    0x0801defe   0x0801defe   0x00000002   PAD
    0x0801df00   0x0801df00   0x0000006c   Code   RO         4689    .text.USBD_CDC_GetFSCfgDesc  usbd_cdc.o
    0x0801df6c   0x0801df6c   0x00000004   PAD
    0x0801df70   0x0801df70   0x00000070   Code   RO         4687    .text.USBD_CDC_GetHSCfgDesc  usbd_cdc.o
    0x0801dfe0   0x0801dfe0   0x0000006c   Code   RO         4691    .text.USBD_CDC_GetOtherSpeedCfgDesc  usbd_cdc.o
    0x0801e04c   0x0801e04c   0x00000004   PAD
    0x0801e050   0x0801e050   0x0000021c   Code   RO         4675    .text.USBD_CDC_Init  usbd_cdc.o
    0x0801e26c   0x0801e26c   0x00000004   PAD
    0x0801e270   0x0801e270   0x0000007e   Code   RO         4703    .text.USBD_CDC_ReceivePacket  usbd_cdc.o
    0x0801e2ee   0x0801e2ee   0x00000002   PAD
    0x0801e2f0   0x0801e2f0   0x00000034   Code   RO         4695    .text.USBD_CDC_RegisterInterface  usbd_cdc.o
    0x0801e324   0x0801e324   0x00000004   PAD
    0x0801e328   0x0801e328   0x0000003c   Code   RO         4699    .text.USBD_CDC_SetRxBuffer  usbd_cdc.o
    0x0801e364   0x0801e364   0x00000004   PAD
    0x0801e368   0x0801e368   0x00000046   Code   RO         4697    .text.USBD_CDC_SetTxBuffer  usbd_cdc.o
    0x0801e3ae   0x0801e3ae   0x00000002   PAD
    0x0801e3b0   0x0801e3b0   0x000001cc   Code   RO         4679    .text.USBD_CDC_Setup  usbd_cdc.o
    0x0801e57c   0x0801e57c   0x00000004   PAD
    0x0801e580   0x0801e580   0x00000088   Code   RO         4701    .text.USBD_CDC_TransmitPacket  usbd_cdc.o
    0x0801e608   0x0801e608   0x00000032   Code   RO         4575    .text.USBD_ClrClassConfig  usbd_core.o
    0x0801e63a   0x0801e63a   0x00000006   PAD
    0x0801e640   0x0801e640   0x00000040   Code   RO         4630    .text.USBD_ClrFeature  usbd_ctlreq.o
    0x0801e680   0x0801e680   0x0000000e   Code   RO         4583    .text.USBD_CoreFindEP  usbd_core.o
    0x0801e68e   0x0801e68e   0x00000002   PAD
    0x0801e690   0x0801e690   0x0000000e   Code   RO         4581    .text.USBD_CoreFindIF  usbd_core.o
    0x0801e69e   0x0801e69e   0x00000002   PAD
    0x0801e6a0   0x0801e6a0   0x0000001e   Code   RO         4660    .text.USBD_CtlContinueRx  usbd_ioreq.o
    0x0801e6be   0x0801e6be   0x00000002   PAD
    0x0801e6c0   0x0801e6c0   0x0000001e   Code   RO         4656    .text.USBD_CtlContinueSendData  usbd_ioreq.o
    0x0801e6de   0x0801e6de   0x00000002   PAD
    0x0801e6e0   0x0801e6e0   0x0000001c   Code   RO         4632    .text.USBD_CtlError  usbd_ctlreq.o
    0x0801e6fc   0x0801e6fc   0x00000004   PAD
    0x0801e700   0x0801e700   0x00000036   Code   RO         4658    .text.USBD_CtlPrepareRx  usbd_ioreq.o
    0x0801e736   0x0801e736   0x00000002   PAD
    0x0801e738   0x0801e738   0x00000022   Code   RO         4664    .text.USBD_CtlReceiveStatus  usbd_ioreq.o
    0x0801e75a   0x0801e75a   0x00000006   PAD
    0x0801e760   0x0801e760   0x00000032   Code   RO         4654    .text.USBD_CtlSendData  usbd_ioreq.o
    0x0801e792   0x0801e792   0x00000006   PAD
    0x0801e798   0x0801e798   0x00000022   Code   RO         4662    .text.USBD_CtlSendStatus  usbd_ioreq.o
    0x0801e7ba   0x0801e7ba   0x00000006   PAD
    0x0801e7c0   0x0801e7c0   0x00000064   Code   RO         4624    .text.USBD_GetConfig  usbd_ctlreq.o
    0x0801e824   0x0801e824   0x00000004   PAD
    0x0801e828   0x0801e828   0x0000031e   Code   RO         4618    .text.USBD_GetDescriptor  usbd_ctlreq.o
    0x0801eb46   0x0801eb46   0x00000002   PAD
    0x0801eb48   0x0801eb48   0x00000076   Code   RO         4605    .text.USBD_GetEpDesc  usbd_core.o
    0x0801ebbe   0x0801ebbe   0x00000002   PAD
    0x0801ebc0   0x0801ebc0   0x00000032   Code   RO         4644    .text.USBD_GetLen   usbd_ctlreq.o
    0x0801ebf2   0x0801ebf2   0x00000006   PAD
    0x0801ebf8   0x0801ebf8   0x00000026   Code   RO         4607    .text.USBD_GetNextDesc  usbd_core.o
    0x0801ec1e   0x0801ec1e   0x00000002   PAD
    0x0801ec20   0x0801ec20   0x00000062   Code   RO         4626    .text.USBD_GetStatus  usbd_ctlreq.o
    0x0801ec82   0x0801ec82   0x00000006   PAD
    0x0801ec88   0x0801ec88   0x000000bc   Code   RO         4642    .text.USBD_GetString  usbd_ctlreq.o
    0x0801ed44   0x0801ed44   0x00000004   PAD
    0x0801ed48   0x0801ed48   0x00000052   Code   RO         4520    .text.USBD_Get_USB_Status  usbd_conf.o
    0x0801ed9a   0x0801ed9a   0x00000006   PAD
    0x0801eda0   0x0801eda0   0x0000004e   Code   RO         4441    .text.USBD_HS_ConfigStrDescriptor  usbd_desc.o
    0x0801edee   0x0801edee   0x00000002   PAD
    0x0801edf0   0x0801edf0   0x0000001a   Code   RO         4431    .text.USBD_HS_DeviceDescriptor  usbd_desc.o
    0x0801ee0a   0x0801ee0a   0x00000006   PAD
    0x0801ee10   0x0801ee10   0x0000004e   Code   RO         4443    .text.USBD_HS_InterfaceStrDescriptor  usbd_desc.o
    0x0801ee5e   0x0801ee5e   0x00000002   PAD
    0x0801ee60   0x0801ee60   0x0000001a   Code   RO         4433    .text.USBD_HS_LangIDStrDescriptor  usbd_desc.o
    0x0801ee7a   0x0801ee7a   0x00000006   PAD
    0x0801ee80   0x0801ee80   0x00000028   Code   RO         4435    .text.USBD_HS_ManufacturerStrDescriptor  usbd_desc.o
    0x0801eea8   0x0801eea8   0x0000004e   Code   RO         4437    .text.USBD_HS_ProductStrDescriptor  usbd_desc.o
    0x0801eef6   0x0801eef6   0x00000002   PAD
    0x0801eef8   0x0801eef8   0x00000020   Code   RO         4439    .text.USBD_HS_SerialStrDescriptor  usbd_desc.o
    0x0801ef18   0x0801ef18   0x0000006a   Code   RO         4561    .text.USBD_Init     usbd_core.o
    0x0801ef82   0x0801ef82   0x00000006   PAD
    0x0801ef88   0x0801ef88   0x0000003a   Code   RO         4534    .text.USBD_LL_ClearStallEP  usbd_conf.o
    0x0801efc2   0x0801efc2   0x00000006   PAD
    0x0801efc8   0x0801efc8   0x0000003a   Code   RO         4528    .text.USBD_LL_CloseEP  usbd_conf.o
    0x0801f002   0x0801f002   0x00000006   PAD
    0x0801f008   0x0801f008   0x00000190   Code   RO         4585    .text.USBD_LL_DataInStage  usbd_core.o
    0x0801f198   0x0801f198   0x000001b2   Code   RO         4579    .text.USBD_LL_DataOutStage  usbd_core.o
    0x0801f34a   0x0801f34a   0x00000006   PAD
    0x0801f350   0x0801f350   0x0000000a   Code   RO         4601    .text.USBD_LL_DevConnected  usbd_core.o
    0x0801f35a   0x0801f35a   0x00000006   PAD
    0x0801f360   0x0801f360   0x00000040   Code   RO         4603    .text.USBD_LL_DevDisconnected  usbd_core.o
    0x0801f3a0   0x0801f3a0   0x0000001c   Code   RO         4544    .text.USBD_LL_GetRxDataSize  usbd_conf.o
    0x0801f3bc   0x0801f3bc   0x00000004   PAD
    0x0801f3c0   0x0801f3c0   0x00000086   Code   RO         4516    .text.USBD_LL_Init  usbd_conf.o
    0x0801f446   0x0801f446   0x00000002   PAD
    0x0801f448   0x0801f448   0x0000005a   Code   RO         4536    .text.USBD_LL_IsStallEP  usbd_conf.o
    0x0801f4a2   0x0801f4a2   0x00000006   PAD
    0x0801f4a8   0x0801f4a8   0x0000006e   Code   RO         4597    .text.USBD_LL_IsoINIncomplete  usbd_core.o
    0x0801f516   0x0801f516   0x00000002   PAD
    0x0801f518   0x0801f518   0x0000006e   Code   RO         4599    .text.USBD_LL_IsoOUTIncomplete  usbd_core.o
    0x0801f586   0x0801f586   0x00000002   PAD
    0x0801f588   0x0801f588   0x0000004a   Code   RO         4526    .text.USBD_LL_OpenEP  usbd_conf.o
    0x0801f5d2   0x0801f5d2   0x00000006   PAD
    0x0801f5d8   0x0801f5d8   0x00000042   Code   RO         4542    .text.USBD_LL_PrepareReceive  usbd_conf.o
    0x0801f61a   0x0801f61a   0x00000006   PAD
    0x0801f620   0x0801f620   0x0000009c   Code   RO         4587    .text.USBD_LL_Reset  usbd_core.o
    0x0801f6bc   0x0801f6bc   0x00000004   PAD
    0x0801f6c0   0x0801f6c0   0x00000024   Code   RO         4593    .text.USBD_LL_Resume  usbd_core.o
    0x0801f6e4   0x0801f6e4   0x00000004   PAD
    0x0801f6e8   0x0801f6e8   0x0000003e   Code   RO         4595    .text.USBD_LL_SOF   usbd_core.o
    0x0801f726   0x0801f726   0x00000002   PAD
    0x0801f728   0x0801f728   0x00000016   Code   RO         4589    .text.USBD_LL_SetSpeed  usbd_core.o
    0x0801f73e   0x0801f73e   0x00000002   PAD
    0x0801f740   0x0801f740   0x0000003a   Code   RO         4538    .text.USBD_LL_SetUSBAddress  usbd_conf.o
    0x0801f77a   0x0801f77a   0x00000006   PAD
    0x0801f780   0x0801f780   0x00000094   Code   RO         4577    .text.USBD_LL_SetupStage  usbd_core.o
    0x0801f814   0x0801f814   0x00000004   PAD
    0x0801f818   0x0801f818   0x0000003a   Code   RO         4532    .text.USBD_LL_StallEP  usbd_conf.o
    0x0801f852   0x0801f852   0x00000006   PAD
    0x0801f858   0x0801f858   0x00000032   Code   RO         4522    .text.USBD_LL_Start  usbd_conf.o
    0x0801f88a   0x0801f88a   0x00000006   PAD
    0x0801f890   0x0801f890   0x0000002c   Code   RO         4591    .text.USBD_LL_Suspend  usbd_core.o
    0x0801f8bc   0x0801f8bc   0x00000004   PAD
    0x0801f8c0   0x0801f8c0   0x00000042   Code   RO         4540    .text.USBD_LL_Transmit  usbd_conf.o
    0x0801f902   0x0801f902   0x00000006   PAD
    0x0801f908   0x0801f908   0x00000062   Code   RO         4638    .text.USBD_ParseSetupRequest  usbd_ctlreq.o
    0x0801f96a   0x0801f96a   0x00000006   PAD
    0x0801f970   0x0801f970   0x00000072   Code   RO         4565    .text.USBD_RegisterClass  usbd_core.o
    0x0801f9e2   0x0801f9e2   0x00000006   PAD
    0x0801f9e8   0x0801f9e8   0x0000000a   Code   RO         4571    .text.USBD_RunTestMode  usbd_core.o
    0x0801f9f2   0x0801f9f2   0x00000006   PAD
    0x0801f9f8   0x0801f9f8   0x0000008c   Code   RO         4620    .text.USBD_SetAddress  usbd_ctlreq.o
    0x0801fa84   0x0801fa84   0x00000004   PAD
    0x0801fa88   0x0801fa88   0x00000036   Code   RO         4573    .text.USBD_SetClassConfig  usbd_core.o
    0x0801fabe   0x0801fabe   0x00000002   PAD
    0x0801fac0   0x0801fac0   0x0000017e   Code   RO         4622    .text.USBD_SetConfig  usbd_ctlreq.o
    0x0801fc3e   0x0801fc3e   0x00000002   PAD
    0x0801fc40   0x0801fc40   0x0000004e   Code   RO         4628    .text.USBD_SetFeature  usbd_ctlreq.o
    0x0801fc8e   0x0801fc8e   0x00000002   PAD
    0x0801fc90   0x0801fc90   0x00000010   Code   RO         4567    .text.USBD_Start    usbd_core.o
    0x0801fca0   0x0801fca0   0x000000cc   Code   RO         4616    .text.USBD_StdDevReq  usbd_ctlreq.o
    0x0801fd6c   0x0801fd6c   0x00000004   PAD
    0x0801fd70   0x0801fd70   0x000003ac   Code   RO         4636    .text.USBD_StdEPReq  usbd_ctlreq.o
    0x0802011c   0x0802011c   0x00000004   PAD
    0x08020120   0x08020120   0x000000f4   Code   RO         4634    .text.USBD_StdItfReq  usbd_ctlreq.o
    0x08020214   0x08020214   0x00000004   PAD
    0x08020218   0x08020218   0x00000008   Code   RO         4548    .text.USBD_static_free  usbd_conf.o
    0x08020220   0x08020220   0x00000010   Code   RO         4546    .text.USBD_static_malloc  usbd_conf.o
    0x08020230   0x08020230   0x000000de   Code   RO          732    .text.USB_ActivateEndpoint  stm32h7xx_ll_usb.o
    0x0802030e   0x0802030e   0x00000002   PAD
    0x08020310   0x08020310   0x0000002c   Code   RO          774    .text.USB_ActivateSetup  stm32h7xx_ll_usb.o
    0x0802033c   0x0802033c   0x00000004   PAD
    0x08020340   0x08020340   0x000000ec   Code   RO          708    .text.USB_CoreInit  stm32h7xx_ll_usb.o
    0x0802042c   0x0802042c   0x00000004   PAD
    0x08020430   0x08020430   0x00000076   Code   RO          710    .text.USB_CoreReset  stm32h7xx_ll_usb.o
    0x080204a6   0x080204a6   0x00000002   PAD
    0x080204a8   0x080204a8   0x00000138   Code   RO          736    .text.USB_DeactivateEndpoint  stm32h7xx_ll_usb.o
    0x080205e0   0x080205e0   0x0000002a   Code   RO          756    .text.USB_DevConnect  stm32h7xx_ll_usb.o
    0x0802060a   0x0802060a   0x00000006   PAD
    0x08020610   0x08020610   0x0000002a   Code   RO          758    .text.USB_DevDisconnect  stm32h7xx_ll_usb.o
    0x0802063a   0x0802063a   0x00000006   PAD
    0x08020640   0x08020640   0x00000290   Code   RO          722    .text.USB_DevInit   stm32h7xx_ll_usb.o
    0x080208d0   0x080208d0   0x00000014   Code   RO          716    .text.USB_DisableGlobalInt  stm32h7xx_ll_usb.o
    0x080208e4   0x080208e4   0x00000004   PAD
    0x080208e8   0x080208e8   0x0000009e   Code   RO          776    .text.USB_EP0_OutStart  stm32h7xx_ll_usb.o
    0x08020986   0x08020986   0x00000002   PAD
    0x08020988   0x08020988   0x000000a0   Code   RO          750    .text.USB_EPClearStall  stm32h7xx_ll_usb.o
    0x08020a28   0x08020a28   0x000000a8   Code   RO          748    .text.USB_EPSetStall  stm32h7xx_ll_usb.o
    0x08020ad0   0x08020ad0   0x000003f8   Code   RO          740    .text.USB_EPStartXfer  stm32h7xx_ll_usb.o
    0x08020ec8   0x08020ec8   0x0000011c   Code   RO          744    .text.USB_EPStopXfer  stm32h7xx_ll_usb.o
    0x08020fe4   0x08020fe4   0x00000004   PAD
    0x08020fe8   0x08020fe8   0x00000014   Code   RO          714    .text.USB_EnableGlobalInt  stm32h7xx_ll_usb.o
    0x08020ffc   0x08020ffc   0x00000004   PAD
    0x08021000   0x08021000   0x00000074   Code   RO          728    .text.USB_FlushRxFifo  stm32h7xx_ll_usb.o
    0x08021074   0x08021074   0x00000004   PAD
    0x08021078   0x08021078   0x0000007a   Code   RO          726    .text.USB_FlushTxFifo  stm32h7xx_ll_usb.o
    0x080210f2   0x080210f2   0x00000006   PAD
    0x080210f8   0x080210f8   0x0000004c   Code   RO          730    .text.USB_GetDevSpeed  stm32h7xx_ll_usb.o
    0x08021144   0x08021144   0x00000004   PAD
    0x08021148   0x08021148   0x00000010   Code   RO          720    .text.USB_GetMode   stm32h7xx_ll_usb.o
    0x08021158   0x08021158   0x00000024   Code   RO          766    .text.USB_ReadDevAllInEpInterrupt  stm32h7xx_ll_usb.o
    0x0802117c   0x0802117c   0x00000004   PAD
    0x08021180   0x08021180   0x00000024   Code   RO          764    .text.USB_ReadDevAllOutEpInterrupt  stm32h7xx_ll_usb.o
    0x080211a4   0x080211a4   0x00000004   PAD
    0x080211a8   0x080211a8   0x0000004e   Code   RO          770    .text.USB_ReadDevInEPInterrupt  stm32h7xx_ll_usb.o
    0x080211f6   0x080211f6   0x00000002   PAD
    0x080211f8   0x080211f8   0x0000002e   Code   RO          768    .text.USB_ReadDevOutEPInterrupt  stm32h7xx_ll_usb.o
    0x08021226   0x08021226   0x00000002   PAD
    0x08021228   0x08021228   0x0000001a   Code   RO          760    .text.USB_ReadInterrupts  stm32h7xx_ll_usb.o
    0x08021242   0x08021242   0x00000006   PAD
    0x08021248   0x08021248   0x000000b4   Code   RO          746    .text.USB_ReadPacket  stm32h7xx_ll_usb.o
    0x080212fc   0x080212fc   0x00000004   PAD
    0x08021300   0x08021300   0x000000de   Code   RO          718    .text.USB_SetCurrentMode  stm32h7xx_ll_usb.o
    0x080213de   0x080213de   0x00000002   PAD
    0x080213e0   0x080213e0   0x00000036   Code   RO          754    .text.USB_SetDevAddress  stm32h7xx_ll_usb.o
    0x08021416   0x08021416   0x00000002   PAD
    0x08021418   0x08021418   0x00000022   Code   RO          724    .text.USB_SetDevSpeed  stm32h7xx_ll_usb.o
    0x0802143a   0x0802143a   0x00000006   PAD
    0x08021440   0x08021440   0x000001ba   Code   RO          712    .text.USB_SetTurnaroundTime  stm32h7xx_ll_usb.o
    0x080215fa   0x080215fa   0x00000006   PAD
    0x08021600   0x08021600   0x00000082   Code   RO          742    .text.USB_WritePacket  stm32h7xx_ll_usb.o
    0x08021682   0x08021682   0x00000006   PAD
    0x08021688   0x08021688   0x00000004   Code   RO          177    .text.UsageFault_Handler  stm32h7xx_it.o
    0x0802168c   0x0802168c   0x00000004   PAD
    0x08021690   0x08021690   0x0000002c   Code   RO         4257    .text.VOFA_Display_2006_Current  procotol.o
    0x080216bc   0x080216bc   0x00000004   PAD
    0x080216c0   0x080216c0   0x00000092   Code   RO         3167    .text.VOFA_JustFloat  vofa.o
    0x08021752   0x08021752   0x00000006   PAD
    0x08021758   0x08021758   0x00000028   Code   RO         3161    .text.VOFA_Register  vofa.o
    0x08021780   0x08021780   0x0000002a   Code   RO         3163    .text.VOFA_Transmit  vofa.o
    0x080217aa   0x080217aa   0x00000006   PAD
    0x080217b0   0x080217b0   0x00000080   Code   RO         4319    .text.VPC_UpdatePackets  vpc.o
    0x08021830   0x08021830   0x0000008a   Code   RO         4343    .text.VS_Pack_And_Send_Data_ROS2  serial.o
    0x080218ba   0x080218ba   0x00000006   PAD
    0x080218c0   0x080218c0   0x0000007e   Code   RO         4337    .text.VS_UnPack_Data_ROS2  serial.o
    0x0802193e   0x0802193e   0x00000002   PAD
    0x08021940   0x08021940   0x00000050   Code   RO         3524    .text.Value_Limit   pid.o
    0x08021990   0x08021990   0x0000007c   Code   RO         3624    .text.Verify_CRC16_Check_Sum  crc.o
    0x08021a0c   0x08021a0c   0x00000004   PAD
    0x08021a10   0x08021a10   0x00000058   Code   RO         3618    .text.Verify_CRC8_Check_Sum  crc.o
    0x08021a68   0x08021a68   0x00000084   Code   RO         3149    .text.WS2812_Control  ws2812.o
    0x08021aec   0x08021aec   0x00000004   PAD
    0x08021af0   0x08021af0   0x0000004a   Code   RO         3145    .text.WS2812_Register  ws2812.o
    0x08021b3a   0x08021b3a   0x00000006   PAD
    0x08021b40   0x08021b40   0x00000038   Code   RO         1324    .text.__NVIC_DisableIRQ  stm32h7xx_hal_cortex.o
    0x08021b78   0x08021b78   0x00000030   Code   RO         1320    .text.__NVIC_EnableIRQ  stm32h7xx_hal_cortex.o
    0x08021ba8   0x08021ba8   0x00000010   Code   RO         1312    .text.__NVIC_GetPriorityGrouping  stm32h7xx_hal_cortex.o
    0x08021bb8   0x08021bb8   0x00000042   Code   RO         1314    .text.__NVIC_SetPriority  stm32h7xx_hal_cortex.o
    0x08021bfa   0x08021bfa   0x00000006   PAD
    0x08021c00   0x08021c00   0x00000042   Code   RO         2840    .text.__NVIC_SetPriority  cmsis_os2.o
    0x08021c42   0x08021c42   0x00000006   PAD
    0x08021c48   0x08021c48   0x0000003c   Code   RO         1308    .text.__NVIC_SetPriorityGrouping  stm32h7xx_hal_cortex.o
    0x08021c84   0x08021c84   0x00000004   PAD
    0x08021c88   0x08021c88   0x000000c8   Code   RO         3815    .text._ui_init_Infantry_group1_0  ui_infantry_group1_0.o
    0x08021d50   0x08021d50   0x000000c8   Code   RO         3831    .text._ui_init_Infantry_group1_1  ui_infantry_group1_1.o
    0x08021e18   0x08021e18   0x000000d8   Code   RO         3847    .text._ui_init_Infantry_group1_2  ui_infantry_group1_2.o
    0x08021ef0   0x08021ef0   0x00000802   Code   RO         3863    .text._ui_init_Infantry_group1_3  ui_infantry_group1_3.o
    0x080226f2   0x080226f2   0x00000006   PAD
    0x080226f8   0x080226f8   0x0000042e   Code   RO         3884    .text._ui_init_Infantry_group1_4  ui_infantry_group1_4.o
    0x08022b26   0x08022b26   0x00000002   PAD
    0x08022b28   0x08022b28   0x00000188   Code   RO         3901    .text._ui_init_Infantry_group1_5  ui_infantry_group1_5.o
    0x08022cb0   0x08022cb0   0x000006ac   Code   RO         3923    .text._ui_init_Infantry_group2_0  ui_infantry_group2_0.o
    0x0802335c   0x0802335c   0x00000004   PAD
    0x08023360   0x08023360   0x0000003a   Code   RO         3819    .text._ui_remove_Infantry_group1_0  ui_infantry_group1_0.o
    0x0802339a   0x0802339a   0x00000006   PAD
    0x080233a0   0x080233a0   0x0000003a   Code   RO         3835    .text._ui_remove_Infantry_group1_1  ui_infantry_group1_1.o
    0x080233da   0x080233da   0x00000006   PAD
    0x080233e0   0x080233e0   0x0000003a   Code   RO         3851    .text._ui_remove_Infantry_group1_2  ui_infantry_group1_2.o
    0x0802341a   0x0802341a   0x00000006   PAD
    0x08023420   0x08023420   0x00000066   Code   RO         3867    .text._ui_remove_Infantry_group1_3  ui_infantry_group1_3.o
    0x08023486   0x08023486   0x00000002   PAD
    0x08023488   0x08023488   0x00000066   Code   RO         3888    .text._ui_remove_Infantry_group1_4  ui_infantry_group1_4.o
    0x080234ee   0x080234ee   0x00000002   PAD
    0x080234f0   0x080234f0   0x0000003a   Code   RO         3905    .text._ui_remove_Infantry_group1_5  ui_infantry_group1_5.o
    0x0802352a   0x0802352a   0x00000006   PAD
    0x08023530   0x08023530   0x00000066   Code   RO         3927    .text._ui_remove_Infantry_group2_0  ui_infantry_group2_0.o
    0x08023596   0x08023596   0x00000002   PAD
    0x08023598   0x08023598   0x00000066   Code   RO         3925    .text._ui_update_Infantry_group2_0  ui_infantry_group2_0.o
    0x080235fe   0x080235fe   0x00000002   PAD
    0x08023600   0x08023600   0x000000be   Code   RO         4718    .text.arm_mat_add_f32  arm_cortexM7lfdp_math.lib(arm_mat_add_f32.o)
    0x080236be   0x080236be   0x00000008   Code   RO         4728    .text.arm_mat_init_f32  arm_cortexM7lfdp_math.lib(arm_mat_init_f32.o)
    0x080236c6   0x080236c6   0x00000002   PAD
    0x080236c8   0x080236c8   0x000002cc   Code   RO         4737    .text.arm_mat_inverse_f32  arm_cortexM7lfdp_math.lib(arm_mat_inverse_f32.o)
    0x08023994   0x08023994   0x00000130   Code   RO         4747    .text.arm_mat_mult_f32  arm_cortexM7lfdp_math.lib(arm_mat_mult_f32.o)
    0x08023ac4   0x08023ac4   0x000000be   Code   RO         4757    .text.arm_mat_sub_f32  arm_cortexM7lfdp_math.lib(arm_mat_sub_f32.o)
    0x08023b82   0x08023b82   0x00000002   PAD
    0x08023b84   0x08023b84   0x000000b4   Code   RO         4767    .text.arm_mat_trans_f32  arm_cortexM7lfdp_math.lib(arm_mat_trans_f32.o)
    0x08023c38   0x08023c38   0x0000006a   Code   RO         3945    .text.calc_crc16    ui_interface.o
    0x08023ca2   0x08023ca2   0x00000006   PAD
    0x08023ca8   0x08023ca8   0x00000046   Code   RO         3943    .text.calc_crc8     ui_interface.o
    0x08023cee   0x08023cee   0x00000002   PAD
    0x08023cf0   0x08023cf0   0x0000083c   Code   RO         4372    .text.chassis_power_control  powerctrl.o
    0x0802452c   0x0802452c   0x00000004   PAD
    0x08024530   0x08024530   0x00000058   Code   RO         3366    .text.float_to_uint  dm_motor.o
    0x08024588   0x08024588   0x00000056   Code   RO         3691    .text.invSqrt       quaternionekf.o
    0x080245de   0x080245de   0x00000002   PAD
    0x080245e0   0x080245e0   0x0000006c   Code   RO           11    .text.main          main.o
    0x0802464c   0x0802464c   0x00000004   PAD
    0x08024650   0x08024650   0x0000005e   Code   RO         3200    .text.next_char     buzzer.o
    0x080246ae   0x080246ae   0x00000002   PAD
    0x080246b0   0x080246b0   0x00000032   Code   RO         3206    .text.next_dots     buzzer.o
    0x080246e2   0x080246e2   0x00000006   PAD
    0x080246e8   0x080246e8   0x00000058   Code   RO         3202    .text.next_number   buzzer.o
    0x08024740   0x08024740   0x00000034   Code   RO         2744    .text.osDelay       cmsis_os2.o
    0x08024774   0x08024774   0x00000004   PAD
    0x08024778   0x08024778   0x00000058   Code   RO         2746    .text.osDelayUntil  cmsis_os2.o
    0x080247d0   0x080247d0   0x00000026   Code   RO         2694    .text.osKernelGetTickCount  cmsis_os2.o
    0x080247f6   0x080247f6   0x00000002   PAD
    0x080247f8   0x080247f8   0x00000046   Code   RO         2678    .text.osKernelInitialize  cmsis_os2.o
    0x0802483e   0x0802483e   0x00000002   PAD
    0x08024840   0x08024840   0x00000052   Code   RO         2684    .text.osKernelStart  cmsis_os2.o
    0x08024892   0x08024892   0x00000006   PAD
    0x08024898   0x08024898   0x000000a4   Code   RO         2736    .text.osThreadFlagsSet  cmsis_os2.o
    0x0802493c   0x0802493c   0x00000004   PAD
    0x08024940   0x08024940   0x0000015a   Code   RO         2708    .text.osThreadNew   cmsis_os2.o
    0x08024a9a   0x08024a9a   0x00000006   PAD
    0x08024aa0   0x08024aa0   0x00000040   Code   RO         2726    .text.osThreadResume  cmsis_os2.o
    0x08024ae0   0x08024ae0   0x00000040   Code   RO         2724    .text.osThreadSuspend  cmsis_os2.o
    0x08024b20   0x08024b20   0x000000d4   Code   RO         2470    .text.prvAddCurrentTaskToDelayedList  tasks.o
    0x08024bf4   0x08024bf4   0x00000004   PAD
    0x08024bf8   0x08024bf8   0x00000122   Code   RO         2456    .text.prvAddNewTaskToReadyList  tasks.o
    0x08024d1a   0x08024d1a   0x00000006   PAD
    0x08024d20   0x08024d20   0x000000a2   Code   RO         2607    .text.prvCheckForValidListAndQueue  timers.o
    0x08024dc2   0x08024dc2   0x00000006   PAD
    0x08024dc8   0x08024dc8   0x0000005a   Code   RO         2574    .text.prvCheckTasksWaitingTermination  tasks.o
    0x08024e22   0x08024e22   0x00000006   PAD
    0x08024e28   0x08024e28   0x00000042   Code   RO         2349    .text.prvCopyDataFromQueue  queue.o
    0x08024e6a   0x08024e6a   0x00000006   PAD
    0x08024e70   0x08024e70   0x000000cc   Code   RO         2337    .text.prvCopyDataToQueue  queue.o
    0x08024f3c   0x08024f3c   0x00000004   PAD
    0x08024f40   0x08024f40   0x0000005e   Code   RO         2462    .text.prvDeleteTCB  tasks.o
    0x08024f9e   0x08024f9e   0x00000002   PAD
    0x08024fa0   0x08024fa0   0x00000040   Code   RO         2645    .text.prvGetNextExpireTime  timers.o
    0x08024fe0   0x08024fe0   0x000000bc   Code   RO         2857    .text.prvHeapInit   heap_4.o
    0x0802509c   0x0802509c   0x00000004   PAD
    0x080250a0   0x080250a0   0x00000038   Code   RO         2496    .text.prvIdleTask   tasks.o
    0x080250d8   0x080250d8   0x00000048   Code   RO         2311    .text.prvInitialiseNewQueue  queue.o
    0x08025120   0x08025120   0x00000122   Code   RO         2454    .text.prvInitialiseNewTask  tasks.o
    0x08025242   0x08025242   0x00000006   PAD
    0x08025248   0x08025248   0x0000008e   Code   RO         2572    .text.prvInitialiseTaskLists  tasks.o
    0x080252d6   0x080252d6   0x00000002   PAD
    0x080252d8   0x080252d8   0x000000c6   Code   RO         2859    .text.prvInsertBlockIntoFreeList  heap_4.o
    0x0802539e   0x0802539e   0x00000002   PAD
    0x080253a0   0x080253a0   0x00000086   Code   RO         2657    .text.prvInsertTimerInActiveList  timers.o
    0x08025426   0x08025426   0x00000002   PAD
    0x08025428   0x08025428   0x00000028   Code   RO         2351    .text.prvIsQueueEmpty  queue.o
    0x08025450   0x08025450   0x0000002e   Code   RO         2339    .text.prvIsQueueFull  queue.o
    0x0802547e   0x0802547e   0x00000002   PAD
    0x08025480   0x08025480   0x00000028   Code   RO         2898    .text.prvPortStartFirstTask  port.o
    0x080254a8   0x080254a8   0x0000008e   Code   RO         2653    .text.prvProcessExpiredTimer  timers.o
    0x08025536   0x08025536   0x00000002   PAD
    0x08025538   0x08025538   0x00000192   Code   RO         2649    .text.prvProcessReceivedCommands  timers.o
    0x080256ca   0x080256ca   0x00000006   PAD
    0x080256d0   0x080256d0   0x0000009a   Code   RO         2647    .text.prvProcessTimerOrBlockTask  timers.o
    0x0802576a   0x0802576a   0x00000006   PAD
    0x08025770   0x08025770   0x00000046   Code   RO         2464    .text.prvResetNextTaskUnblockTime  tasks.o
    0x080257b6   0x080257b6   0x00000002   PAD
    0x080257b8   0x080257b8   0x00000044   Code   RO         2651    .text.prvSampleTimeNow  timers.o
    0x080257fc   0x080257fc   0x00000004   PAD
    0x08025800   0x08025800   0x000000d4   Code   RO         2655    .text.prvSwitchTimerLists  timers.o
    0x080258d4   0x080258d4   0x00000004   PAD
    0x080258d8   0x080258d8   0x00000030   Code   RO         2540    .text.prvTaskCheckFreeStackSpace  tasks.o
    0x08025908   0x08025908   0x0000004c   Code   RO         2888    .text.prvTaskExitError  port.o
    0x08025954   0x08025954   0x00000004   PAD
    0x08025958   0x08025958   0x0000006a   Code   RO         2490    .text.prvTaskIsTaskSuspended  tasks.o
    0x080259c2   0x080259c2   0x00000006   PAD
    0x080259c8   0x080259c8   0x0000001e   Code   RO         2609    .text.prvTimerTask  timers.o
    0x080259e6   0x080259e6   0x00000002   PAD
    0x080259e8   0x080259e8   0x000000ae   Code   RO         2341    .text.prvUnlockQueue  queue.o
    0x08025a96   0x08025a96   0x00000002   PAD
    0x08025a98   0x08025a98   0x000001ec   Code   RO         2855    .text.pvPortMalloc  heap_4.o
    0x08025c84   0x08025c84   0x00000004   PAD
    0x08025c88   0x08025c88   0x0000005e   Code   RO         2886    .text.pxPortInitialiseStack  port.o
    0x08025ce6   0x08025ce6   0x00000002   PAD
    0x08025ce8   0x08025ce8   0x00000264   Code   RO         3306    .text.sbus_to_rc    remote_control.o
    0x08025f4c   0x08025f4c   0x00000004   PAD
    0x08025f50   0x08025f50   0x000001b2   Code   RO         3198    .text.string_handle  buzzer.o
    0x08026102   0x08026102   0x00000006   PAD
    0x08026108   0x08026108   0x00000050   Code   RO         3791    .text.ui_init       ui.o
    0x08026158   0x08026158   0x00000074   Code   RO         3951    .text.ui_proc_5_frame  ui_interface.o
    0x080261cc   0x080261cc   0x00000004   PAD
    0x080261d0   0x080261d0   0x00000074   Code   RO         3953    .text.ui_proc_6_frame  ui_interface.o
    0x08026244   0x08026244   0x00000004   PAD
    0x08026248   0x08026248   0x00000074   Code   RO         3955    .text.ui_proc_7_frame  ui_interface.o
    0x080262bc   0x080262bc   0x00000004   PAD
    0x080262c0   0x080262c0   0x00000092   Code   RO         3957    .text.ui_proc_string_frame  ui_interface.o
    0x08026352   0x08026352   0x00000006   PAD
    0x08026358   0x08026358   0x00000096   Code   RO         3793    .text.ui_reinit     ui.o
    0x080263ee   0x080263ee   0x00000002   PAD
    0x080263f0   0x080263f0   0x00000052   Code   RO         3368    .text.uint_to_float  dm_motor.o
    0x08026442   0x08026442   0x00000006   PAD
    0x08026448   0x08026448   0x00000288   Code   RO         3795    .text.update_shooter_ui  ui.o
    0x080266d0   0x080266d0   0x00000048   Code   RO         2298    .text.uxListRemove  list.o
    0x08026718   0x08026718   0x00000038   Code   RO         2542    .text.uxTaskGetStackHighWaterMark  tasks.o
    0x08026750   0x08026750   0x0000002a   Code   RO         2836    .text.vApplicationGetIdleTaskMemory  cmsis_os2.o
    0x0802677a   0x0802677a   0x00000006   PAD
    0x08026780   0x08026780   0x0000002c   Code   RO         2838    .text.vApplicationGetTimerTaskMemory  cmsis_os2.o
    0x080267ac   0x080267ac   0x00000004   PAD
    0x080267b0   0x080267b0   0x0000002e   Code   RO         2290    .text.vListInitialise  list.o
    0x080267de   0x080267de   0x00000002   PAD
    0x080267e0   0x080267e0   0x0000000e   Code   RO         2292    .text.vListInitialiseItem  list.o
    0x080267ee   0x080267ee   0x00000002   PAD
    0x080267f0   0x080267f0   0x0000006a   Code   RO         2296    .text.vListInsert   list.o
    0x0802685a   0x0802685a   0x00000006   PAD
    0x08026860   0x08026860   0x0000003a   Code   RO         2294    .text.vListInsertEnd  list.o
    0x0802689a   0x0802689a   0x00000006   PAD
    0x080268a0   0x080268a0   0x00000014   Code   RO         2896    .text.vPortEnableVFP  port.o
    0x080268b4   0x080268b4   0x00000004   PAD
    0x080268b8   0x080268b8   0x00000056   Code   RO         2902    .text.vPortEnterCritical  port.o
    0x0802690e   0x0802690e   0x00000002   PAD
    0x08026910   0x08026910   0x0000004a   Code   RO         2904    .text.vPortExitCritical  port.o
    0x0802695a   0x0802695a   0x00000006   PAD
    0x08026960   0x08026960   0x000000ce   Code   RO         2861    .text.vPortFree     heap_4.o
    0x08026a2e   0x08026a2e   0x00000002   PAD
    0x08026a30   0x08026a30   0x00000044   Code   RO         2894    .text.vPortSetupTimerInterrupt  port.o
    0x08026a74   0x08026a74   0x00000004   PAD
    0x08026a78   0x08026a78   0x00000084   Code   RO         2910    .text.vPortValidateInterruptPriority  port.o
    0x08026afc   0x08026afc   0x00000004   PAD
    0x08026b00   0x08026b00   0x00000052   Code   RO         2381    .text.vQueueAddToRegistry  queue.o
    0x08026b52   0x08026b52   0x00000006   PAD
    0x08026b58   0x08026b58   0x00000064   Code   RO         2385    .text.vQueueWaitForMessageRestricted  queue.o
    0x08026bbc   0x08026bbc   0x00000004   PAD
    0x08026bc0   0x08026bc0   0x0000006e   Code   RO         2474    .text.vTaskDelay    tasks.o
    0x08026c2e   0x08026c2e   0x00000002   PAD
    0x08026c30   0x08026c30   0x00000114   Code   RO         2466    .text.vTaskDelayUntil  tasks.o
    0x08026d44   0x08026d44   0x00000004   PAD
    0x08026d48   0x08026d48   0x00000024   Code   RO         2528    .text.vTaskInternalSetTimeOutState  tasks.o
    0x08026d6c   0x08026d6c   0x00000004   PAD
    0x08026d70   0x08026d70   0x0000000e   Code   RO         2532    .text.vTaskMissedYield  tasks.o
    0x08026d7e   0x08026d7e   0x00000002   PAD
    0x08026d80   0x08026d80   0x00000042   Code   RO         2516    .text.vTaskPlaceOnEventList  tasks.o
    0x08026dc2   0x08026dc2   0x00000006   PAD
    0x08026dc8   0x08026dc8   0x00000052   Code   RO         2520    .text.vTaskPlaceOnEventListRestricted  tasks.o
    0x08026e1a   0x08026e1a   0x00000006   PAD
    0x08026e20   0x08026e20   0x000000d6   Code   RO         2488    .text.vTaskResume   tasks.o
    0x08026ef6   0x08026ef6   0x00000002   PAD
    0x08026ef8   0x08026ef8   0x000000e0   Code   RO         2494    .text.vTaskStartScheduler  tasks.o
    0x08026fd8   0x08026fd8   0x00000128   Code   RO         2484    .text.vTaskSuspend  tasks.o
    0x08027100   0x08027100   0x00000010   Code   RO         2468    .text.vTaskSuspendAll  tasks.o
    0x08027110   0x08027110   0x000000c6   Code   RO         2486    .text.vTaskSwitchContext  tasks.o
    0x080271d6   0x080271d6   0x00000002   PAD
    0x080271d8   0x080271d8   0x00000156   Code   RO         2892    .text.xPortStartScheduler  port.o
    0x0802732e   0x0802732e   0x00000002   PAD
    0x08027330   0x08027330   0x0000003c   Code   RO         2908    .text.xPortSysTickHandler  port.o
    0x0802736c   0x0802736c   0x00000004   PAD
    0x08027370   0x08027370   0x0000010e   Code   RO         2309    .text.xQueueGenericCreateStatic  queue.o
    0x0802747e   0x0802747e   0x00000002   PAD
    0x08027480   0x08027480   0x000000ba   Code   RO         2307    .text.xQueueGenericReset  queue.o
    0x0802753a   0x0802753a   0x00000006   PAD
    0x08027540   0x08027540   0x0000022c   Code   RO         2327    .text.xQueueGenericSend  queue.o
    0x0802776c   0x0802776c   0x00000004   PAD
    0x08027770   0x08027770   0x0000014c   Code   RO         2343    .text.xQueueGenericSendFromISR  queue.o
    0x080278bc   0x080278bc   0x00000004   PAD
    0x080278c0   0x080278c0   0x000001dc   Code   RO         2347    .text.xQueueReceive  queue.o
    0x08027a9c   0x08027a9c   0x00000004   PAD
    0x08027aa0   0x08027aa0   0x000000cc   Code   RO         2530    .text.xTaskCheckForTimeOut  tasks.o
    0x08027b6c   0x08027b6c   0x00000004   PAD
    0x08027b70   0x08027b70   0x0000009e   Code   RO         2458    .text.xTaskCreate   tasks.o
    0x08027c0e   0x08027c0e   0x00000002   PAD
    0x08027c10   0x08027c10   0x000000ce   Code   RO         2452    .text.xTaskCreateStatic  tasks.o
    0x08027cde   0x08027cde   0x00000002   PAD
    0x08027ce0   0x08027ce0   0x00000178   Code   RO         2562    .text.xTaskGenericNotify  tasks.o
    0x08027e58   0x08027e58   0x000001c4   Code   RO         2564    .text.xTaskGenericNotifyFromISR  tasks.o
    0x0802801c   0x0802801c   0x00000004   PAD
    0x08028020   0x08028020   0x00000038   Code   RO         2546    .text.xTaskGetSchedulerState  tasks.o
    0x08028058   0x08028058   0x00000014   Code   RO         2502    .text.xTaskGetTickCount  tasks.o
    0x0802806c   0x0802806c   0x00000004   PAD
    0x08028070   0x08028070   0x0000001e   Code   RO         2504    .text.xTaskGetTickCountFromISR  tasks.o
    0x0802808e   0x0802808e   0x00000002   PAD
    0x08028090   0x08028090   0x000001c4   Code   RO         2500    .text.xTaskIncrementTick  tasks.o
    0x08028254   0x08028254   0x00000004   PAD
    0x08028258   0x08028258   0x000000ec   Code   RO         2550    .text.xTaskPriorityDisinherit  tasks.o
    0x08028344   0x08028344   0x00000004   PAD
    0x08028348   0x08028348   0x000000ce   Code   RO         2522    .text.xTaskRemoveFromEventList  tasks.o
    0x08028416   0x08028416   0x00000002   PAD
    0x08028418   0x08028418   0x00000186   Code   RO         2472    .text.xTaskResumeAll  tasks.o
    0x0802859e   0x0802859e   0x00000002   PAD
    0x080285a0   0x080285a0   0x00000094   Code   RO         2605    .text.xTimerCreateTimerTask  timers.o
    0x08028634   0x08028634   0x00000004   PAD
    0x08028638   0x08028638   0x000000b0   Code   RO         2617    .text.xTimerGenericCommand  timers.o
    0x080286e8   0x080286e8   0x00000030   Code   RO         5041    i.__ARM_fpclassify  m_wv.l(fpclassify.o)
    0x08028718   0x08028718   0x00000026   Code   RO         4954    i.__ARM_fpclassifyf  m_wv.l(fpclassifyf.o)
    0x0802873e   0x0802873e   0x00000002   PAD
    0x08028740   0x08028740   0x00000118   Code   RO         4776    i.__hardfp_acosf    m_wv.l(acosf.o)
    0x08028858   0x08028858   0x0000012c   Code   RO         4782    i.__hardfp_asinf    m_wv.l(asinf.o)
    0x08028984   0x08028984   0x000002ac   Code   RO         4788    i.__hardfp_atan2f   m_wv.l(atan2f.o)
    0x08028c30   0x08028c30   0x000000b0   Code   RO         4794    i.__hardfp_cos      m_wv.l(cos.o)
    0x08028ce0   0x08028ce0   0x00000150   Code   RO         4800    i.__hardfp_cosf     m_wv.l(cosf.o)
    0x08028e30   0x08028e30   0x000000b0   Code   RO         4806    i.__hardfp_sin      m_wv.l(sin.o)
    0x08028ee0   0x08028ee0   0x00000190   Code   RO         4812    i.__hardfp_sinf     m_wv.l(sinf.o)
    0x08029070   0x08029070   0x0000003a   Code   RO         4824    i.__hardfp_sqrtf    m_wv.l(sqrtf.o)
    0x080290aa   0x080290aa   0x00000006   PAD
    0x080290b0   0x080290b0   0x00000308   Code   RO         4970    i.__ieee754_rem_pio2  m_wv.l(rred.o)
    0x080293b8   0x080293b8   0x000000c4   Code   RO         4937    i.__kernel_cos      m_wv.l(cos_i.o)
    0x0802947c   0x0802947c   0x00000070   Code   RO         5043    i.__kernel_poly     m_wv.l(poly.o)
    0x080294ec   0x080294ec   0x00000004   PAD
    0x080294f0   0x080294f0   0x000000a0   Code   RO         4978    i.__kernel_sin      m_wv.l(sin_i.o)
    0x08029590   0x08029590   0x00000018   Code   RO         4943    i.__mathlib_dbl_invalid  m_wv.l(dunder.o)
    0x080295a8   0x080295a8   0x00000018   Code   RO         4946    i.__mathlib_dbl_underflow  m_wv.l(dunder.o)
    0x080295c0   0x080295c0   0x00000006   Code   RO         4957    i.__mathlib_flt_infnan  m_wv.l(funder.o)
    0x080295c6   0x080295c6   0x00000006   Code   RO         4958    i.__mathlib_flt_infnan2  m_wv.l(funder.o)
    0x080295cc   0x080295cc   0x00000010   Code   RO         4959    i.__mathlib_flt_invalid  m_wv.l(funder.o)
    0x080295dc   0x080295dc   0x00000010   Code   RO         4962    i.__mathlib_flt_underflow  m_wv.l(funder.o)
    0x080295ec   0x080295ec   0x00000154   Code   RO         4975    i.__mathlib_rredf2  m_wv.l(rredf.o)
    0x08029740   0x08029740   0x0000000e   Code   RO         5055    i.__scatterload_copy  mc_w.l(handlers.o)
    0x0802974e   0x0802974e   0x00000002   Code   RO         5056    i.__scatterload_null  mc_w.l(handlers.o)
    0x08029750   0x08029750   0x0000000e   Code   RO         5057    i.__scatterload_zeroinit  mc_w.l(handlers.o)
    0x0802975e   0x0802975e   0x00000002   PAD
    0x08029760   0x08029760   0x0000000c   Code   RO         5019    i.__set_errno       mc_w.l(errno.o)
    0x0802976c   0x0802976c   0x00000018   Code   RO         5037    i.fabs              m_wv.l(fabs.o)
    0x08029784   0x08029784   0x00000050   Code   RO         4909    i.free              mc_w.l(malloc.o)
    0x080297d4   0x080297d4   0x0000006c   Code   RO         4910    i.malloc            mc_w.l(malloc.o)
    0x08029840   0x08029840   0x0000003e   Code   RO         4826    i.sqrtf             m_wv.l(sqrtf.o)
    0x0802987e   0x0802987e   0x00000081   Data   RO         4836    .constdata          mc_w.l(ctype_o.o)
    0x080298ff   0x080298ff   0x00000001   PAD
    0x08029900   0x08029900   0x00000004   Data   RO         4837    .constdata          mc_w.l(ctype_o.o)
    0x08029904   0x08029904   0x00000004   PAD
    0x08029908   0x08029908   0x00000030   Data   RO         4938    .constdata          m_wv.l(cos_i.o)
    0x08029938   0x08029938   0x000000cc   Data   RO         4972    .constdata          m_wv.l(rred.o)
    0x08029a04   0x08029a04   0x00000020   Data   RO         4976    .constdata          m_wv.l(rredf.o)
    0x08029a24   0x08029a24   0x00000004   PAD
    0x08029a28   0x08029a28   0x00000028   Data   RO         4979    .constdata          m_wv.l(sin_i.o)
    0x08029a50   0x08029a50   0x00000018   Data   RO         3223    .rodata..L__const.Buzzer_Register.buzzer_config  buzzer.o
    0x08029a68   0x08029a68   0x00000024   Data   RO         4178    .rodata..L__const.Buzzer_Task_Init.attr  daemon_task.o
    0x08029a8c   0x08029a8c   0x00000024   Data   RO         4038    .rodata..L__const.Chassis_Task_Init.attr  chassis_task.o
    0x08029ab0   0x08029ab0   0x00000024   Data   RO         4300    .rodata..L__const.Control_Task_Init.attr  control_task.o
    0x08029ad4   0x08029ad4   0x00000024   Data   RO         4104    .rodata..L__const.Gimbal_Task_Init.attr  gimbal_task.o
    0x08029af8   0x08029af8   0x0000004c   Data   RO         1914    .rodata..L__const.HAL_FDCAN_Init.CvtEltSize  stm32h7xx_hal_fdcan.o
    0x08029b44   0x08029b44   0x00000024   Data   RO         4228    .rodata..L__const.INS_Task_Init.attr  ins_task.o
    0x08029b68   0x08029b68   0x00000024   Data   RO         4271    .rodata..L__const.Procotol_Task_Init.attr  procotol_task.o
    0x08029b8c   0x08029b8c   0x0000000c   Data   RO         3504    .rodata..L__const.Referee_Init.supervisor_conf  referee.o
    0x08029b98   0x08029b98   0x0000000c   Data   RO         3311    .rodata..L__const.Remote_Control_Init.supervisor_conf  remote_control.o
    0x08029ba4   0x08029ba4   0x00000024   Data   RO         4152    .rodata..L__const.Shoot_Task_Init.attr  shoot_task.o
    0x08029bc8   0x08029bc8   0x00000024   Data   RO         3800    .rodata..L__const.UI_Task_Init.attr  ui.o
    0x08029bec   0x08029bec   0x00000100   Data   RO         3629    .rodata.CRC8_TAB    crc.o
    0x08029cec   0x08029cec   0x00000100   Data   RO         3969    .rodata.CRC8_TAB_UI  ui_interface.o
    0x08029dec   0x08029dec   0x00000010   Data   RO         2244    .rodata.D1CorePrescTable  system_stm32h7xx.o
    0x08029dfc   0x08029dfc   0x00000010   Data   RO         1915    .rodata.DLCtoBytes  stm32h7xx_hal_fdcan.o
    0x08029e0c   0x08029e0c   0x00000008   Data   RO         1100    .rodata.DMA_CalcBaseAndBitshift.flagBitshiftOffset  stm32h7xx_hal_dma.o
    0x08029e14   0x08029e14   0x00000090   Data   RO         3693    .rodata.IMU_QuaternionEKF_F  quaternionekf.o
    0x08029ea4   0x08029ea4   0x000000da   Data   RO         3212    .rodata.Note_Freq   buzzer.o
    0x08029f7e   0x08029f7e   0x00000011   Data   RO         3213    .rodata.StartUP_sound  buzzer.o
    0x08029f8f   0x08029f8f   0x00000008   Data   RO         2228    .rodata.UARTEx_SetNbDataToProcess.denominator  stm32h7xx_hal_uart_ex.o
    0x08029f97   0x08029f97   0x00000008   Data   RO         2227    .rodata.UARTEx_SetNbDataToProcess.numerator  stm32h7xx_hal_uart_ex.o
    0x08029f9f   0x08029f9f   0x00000001   PAD
    0x08029fa0   0x08029fa0   0x00000018   Data   RO         2183    .rodata.UARTPrescTable  stm32h7xx_hal_uart.o
    0x08029fb8   0x08029fb8   0x00000024   Data   RO         3222    .rodata.Warming_sound  buzzer.o
    0x08029fdc   0x08029fdc   0x00000007   Data   RO         3227    .rodata._note_tab   buzzer.o
    0x08029fe3   0x08029fe3   0x00000001   PAD
    0x08029fe4   0x08029fe4   0x00000024   Data   RO           40    .rodata.defaultTask_attributes  freertos.o
    0x0802a008   0x0802a008   0x0000000c   Data   RO         4208    .rodata.gravity     ins.o
    0x0802a014   0x0802a014   0x0000000c   Data   RO           39    .rodata.str1.1      freertos.o
    0x0802a020   0x0802a020   0x00000005   Data   RO         2590    .rodata.str1.1      tasks.o
    0x0802a025   0x0802a025   0x0000000d   Data   RO         2660    .rodata.str1.1      timers.o
    0x0802a032   0x0802a032   0x00000028   Data   RO         3799    .rodata.str1.1      ui.o
    0x0802a05a   0x0802a05a   0x00000005   Data   RO         3823    .rodata.str1.1      ui_infantry_group1_0.o
    0x0802a05f   0x0802a05f   0x00000005   Data   RO         3839    .rodata.str1.1      ui_infantry_group1_1.o
    0x0802a064   0x0802a064   0x00000004   Data   RO         3855    .rodata.str1.1      ui_infantry_group1_2.o
    0x0802a068   0x0802a068   0x00000004   Data   RO         3915    .rodata.str1.1      ui_infantry_group1_5.o
    0x0802a06c   0x0802a06c   0x0000000d   Data   RO         4037    .rodata.str1.1      chassis_task.o
    0x0802a079   0x0802a079   0x0000000c   Data   RO         4103    .rodata.str1.1      gimbal_task.o
    0x0802a085   0x0802a085   0x00000031   Data   RO         4151    .rodata.str1.1      shoot_task.o
    0x0802a0b6   0x0802a0b6   0x00000040   Data   RO         4173    .rodata.str1.1      daemon_task.o
    0x0802a0f6   0x0802a0f6   0x0000002b   Data   RO         4227    .rodata.str1.1      ins_task.o
    0x0802a121   0x0802a121   0x0000003a   Data   RO         4270    .rodata.str1.1      procotol_task.o
    0x0802a15b   0x0802a15b   0x0000000d   Data   RO         4299    .rodata.str1.1      control_task.o
    0x0802a168   0x0802a168   0x00000042   Data   RO         4456    .rodata.str1.1      usbd_desc.o
    0x0802a1aa   0x0802a1aa   0x00000200   Data   RO         3631    .rodata.wCRC_Table  crc.o
    0x0802a3aa   0x0802a3aa   0x00000200   Data   RO         3970    .rodata.wCRC_Table_UI  ui_interface.o
    0x0802a5aa   0x0802a5aa   0x00000002   PAD
    0x0802a5ac   0x0802a5ac   0x0000000c   Data   RO         4202    .rodata.xb          ins.o
    0x0802a5b8   0x0802a5b8   0x0000000c   Data   RO         4203    .rodata.yb          ins.o
    0x0802a5c4   0x0802a5c4   0x0000000c   Data   RO         4204    .rodata.zb          ins.o
    0x0802a5d0   0x0802a5d0   0x00000020   Data   RO         5054    Region$$Table       anon$$obj.o


    Execution Region RW_IRAM1 (Exec base: 0x20000000, Load base: 0x0802a5f0, Size: 0x00000000, Max: 0x00020000, ABSOLUTE)

    **** No section assigned to this execution region ****


    Execution Region RW_IRAM2 (Exec base: 0x24000000, Load base: 0x0802a5f0, Size: 0x0000dcb8, Max: 0x00050000, ABSOLUTE, COMPRESSED[0x000002f8])

    Exec Addr    Load Addr    Size         Type   Attr      Idx    E Section Name        Object

    0x24000000   COMPRESSED   0x00000004   Data   RW         5015    .data               mc_w.l(mvars.o)
    0x24000004   COMPRESSED   0x00000004   Data   RW         5016    .data               mc_w.l(mvars.o)
    0x24000008   COMPRESSED   0x00000004   Data   RW         5020    .data               mc_w.l(errno.o)
    0x2400000c   COMPRESSED   0x00000008   Data   RW         3282    .data.BMI088_Accel_Read.tx  bmi088.o
    0x24000014   COMPRESSED   0x00000002   Data   RW         3277    .data.BMI088_Calibrate_IMU.acc_cali_time  bmi088.o
    0x24000016   COMPRESSED   0x00000002   Data   RW         3276    .data.BMI088_Calibrate_IMU.cail_time  bmi088.o
    0x24000018   COMPRESSED   0x00000008   Data   RW         3284    .data.BMI088_Gyro_Read.tx  bmi088.o
    0x24000020   COMPRESSED   0x00000001   Data   RW         3007    .data.CAN_Add_Filter.can2_filter_idx  bsp_can.o
    0x24000021   COMPRESSED   0x00000001   Data   RW         3008    .data.CAN_Add_Filter.can3_filter_idx  bsp_can.o
    0x24000022   COMPRESSED   0x00000001   Data   RW         4709    .data.CDCCmdEpAdd   usbd_cdc.o
    0x24000023   COMPRESSED   0x00000001   Data   RW         4707    .data.CDCInEpAdd    usbd_cdc.o
    0x24000024   COMPRESSED   0x00000001   Data   RW         4708    .data.CDCOutEpAdd   usbd_cdc.o
    0x24000025   COMPRESSED   0x00000001   PAD
    0x24000026   COMPRESSED   0x00000002   Data   RW         3630    .data.CRC_INIT      crc.o
    0x24000028   COMPRESSED   0x00000001   Data   RW         4016    .data.Chassis_Follow_Flag  chassis.o
    0x24000029   COMPRESSED   0x00000003   PAD
    0x2400002c   COMPRESSED   0x00000004   Data   RW         4384    .data.E_lower       powerctrl.o
    0x24000030   COMPRESSED   0x00000004   Data   RW         4385    .data.E_upper       powerctrl.o
    0x24000034   COMPRESSED   0x00000001   Data   RW         4131    .data.Fire_Control  shoot.o
    0x24000035   COMPRESSED   0x00000003   PAD
    0x24000038   COMPRESSED   0x00000020   Data   RW         4451    .data.HS_Desc       usbd_desc.o
    0x24000058   COMPRESSED   0x00000090   Data   RW         3694    .data.IMU_QuaternionEKF_P  quaternionekf.o
    0x240000e8   COMPRESSED   0x00000004   Data   RW         2242    .data.SystemCoreClock  system_stm32h7xx.o
    0x240000ec   COMPRESSED   0x00000004   Data   RW         2243    .data.SystemD2Clock  system_stm32h7xx.o
    0x240000f0   COMPRESSED   0x00000038   Data   RW         4705    .data.USBD_CDC      usbd_cdc.o
    0x24000128   COMPRESSED   0x00000043   Data   RW         4710    .data.USBD_CDC_CfgDesc  usbd_cdc.o
    0x2400016b   COMPRESSED   0x00000001   PAD
    0x2400016c   COMPRESSED   0x0000000a   Data   RW         4706    .data.USBD_CDC_DeviceQualifierDesc  usbd_cdc.o
    0x24000176   COMPRESSED   0x00000002   PAD
    0x24000178   COMPRESSED   0x00000012   Data   RW         4452    .data.USBD_HS_DeviceDesc  usbd_desc.o
    0x2400018a   COMPRESSED   0x00000002   PAD
    0x2400018c   COMPRESSED   0x00000014   Data   RW         4478    .data.USBD_Interface_fops_HS  usbd_cdc_if.o
    0x240001a0   COMPRESSED   0x00000004   Data   RW         4454    .data.USBD_LangIDDesc  usbd_desc.o
    0x240001a4   COMPRESSED   0x0000001a   Data   RW         4455    .data.USBD_StringSerial  usbd_desc.o
    0x240001be   COMPRESSED   0x00000002   PAD
    0x240001c0   COMPRESSED   0x00000050   Data   RW         4074    .data.angle_pid_pitch_head  gimbal.o
    0x24000210   COMPRESSED   0x00000050   Data   RW         4076    .data.angle_pid_pitch_neck  gimbal.o
    0x24000260   COMPRESSED   0x00000050   Data   RW         4072    .data.angle_pid_yaw  gimbal.o
    0x240002b0   COMPRESSED   0x00000012   Data   RW         3291    .data.bmi088_accel_init_table  bmi088.o
    0x240002c2   COMPRESSED   0x00000012   Data   RW         3292    .data.bmi088_gyro_init_table  bmi088.o
    0x240002d4   COMPRESSED   0x000000b4   Data   RW         3269    .data.bmi088_init_h7  bmi088.o
    0x24000388   COMPRESSED   0x00000050   Data   RW         4135    .data.chassis_2006_init  shoot.o
    0x240003d8   COMPRESSED   0x00000050   Data   RW         4132    .data.chassis_2006_speed_pid  shoot.o
    0x24000428   COMPRESSED   0x00000050   Data   RW         4019    .data.chassis_3508_init  chassis.o
    0x24000478   COMPRESSED   0x00000050   Data   RW         4017    .data.chassis_3508_speed_pid  chassis.o
    0x240004c8   COMPRESSED   0x00000004   Data   RW         4378    .data.chassis_max_power  powerctrl.o
    0x240004cc   COMPRESSED   0x00000050   Data   RW         4078    .data.dm_6006_yaw   gimbal.o
    0x2400051c   COMPRESSED   0x00000050   Data   RW         4133    .data.friction_angle_pid  shoot.o
    0x2400056c   COMPRESSED   0x00000050   Data   RW         4136    .data.friction_motor_init  shoot.o
    0x240005bc   COMPRESSED   0x00000050   Data   RW         4134    .data.friction_speed_pid  shoot.o
    0x2400060c   COMPRESSED   0x00000030   Data   RW         3136    .data.message_center  message_center.o
    0x2400063c   COMPRESSED   0x00000050   Data   RW         4018    .data.omega_follow_pid  chassis.o
    0x2400068c   COMPRESSED   0x00000050   Data   RW         4080    .data.p_h_4310      gimbal.o
    0x240006dc   COMPRESSED   0x00000050   Data   RW         4079    .data.p_n_4310      gimbal.o
    0x2400072c   COMPRESSED   0x00000001   Data   RW         3451    .data.ready_to_receive  rs485.o
    0x2400072d   COMPRESSED   0x00000003   PAD
    0x24000730   COMPRESSED   0x000004b0   Data   RW         3353    .data.sender_assignment  dji_motor.o
    0x24000be0   COMPRESSED   0x000000a0   Data   RW         3432    .data.shoot_sender_assignment  shoot_motor.o
    0x24000c80   COMPRESSED   0x00000050   Data   RW         4075    .data.speed_pid_pitch_head  gimbal.o
    0x24000cd0   COMPRESSED   0x00000050   Data   RW         4077    .data.speed_pid_pitch_neck  gimbal.o
    0x24000d20   COMPRESSED   0x00000050   Data   RW         4073    .data.speed_pid_yaw  gimbal.o
    0x24000d70   COMPRESSED   0x00000004   Data   RW         3822    .data.ui_Infantry_group1_auto  ui_infantry_group1_0.o
    0x24000d74   COMPRESSED   0x00000004   Data   RW         3893    .data.ui_Infantry_group1_auto_range  ui_infantry_group1_4.o
    0x24000d78   COMPRESSED   0x00000004   Data   RW         3874    .data.ui_Infantry_group1_body_rect  ui_infantry_group1_3.o
    0x24000d7c   COMPRESSED   0x00000004   Data   RW         3854    .data.ui_Infantry_group1_cap  ui_infantry_group1_2.o
    0x24000d80   COMPRESSED   0x00000004   Data   RW         3875    .data.ui_Infantry_group1_capasitorRect  ui_infantry_group1_3.o
    0x24000d84   COMPRESSED   0x00000004   Data   RW         3838    .data.ui_Infantry_group1_fric  ui_infantry_group1_1.o
    0x24000d88   COMPRESSED   0x00000004   Data   RW         3876    .data.ui_Infantry_group1_frontLine  ui_infantry_group1_3.o
    0x24000d8c   COMPRESSED   0x00000004   Data   RW         3873    .data.ui_Infantry_group1_horizen1  ui_infantry_group1_3.o
    0x24000d90   COMPRESSED   0x00000004   Data   RW         3891    .data.ui_Infantry_group1_horizen2  ui_infantry_group1_4.o
    0x24000d94   COMPRESSED   0x00000004   Data   RW         3892    .data.ui_Infantry_group1_horizen3  ui_infantry_group1_4.o
    0x24000d98   COMPRESSED   0x00000004   Data   RW         3871    .data.ui_Infantry_group1_left  ui_infantry_group1_3.o
    0x24000d9c   COMPRESSED   0x00000004   Data   RW         3870    .data.ui_Infantry_group1_midline  ui_infantry_group1_3.o
    0x24000da0   COMPRESSED   0x00000004   Data   RW         3872    .data.ui_Infantry_group1_right  ui_infantry_group1_3.o
    0x24000da4   COMPRESSED   0x00000004   Data   RW         3930    .data.ui_Infantry_group2_Front  ui_infantry_group2_0.o
    0x24000da8   COMPRESSED   0x00000004   Data   RW         3933    .data.ui_Infantry_group2_auto_point  ui_infantry_group2_0.o
    0x24000dac   COMPRESSED   0x00000004   Data   RW         3931    .data.ui_Infantry_group2_electricity  ui_infantry_group2_0.o
    0x24000db0   COMPRESSED   0x00000004   Data   RW         3935    .data.ui_Infantry_group2_error_num  ui_infantry_group2_0.o
    0x24000db4   COMPRESSED   0x00000004   Data   RW         3932    .data.ui_Infantry_group2_fric_point  ui_infantry_group2_0.o
    0x24000db8   COMPRESSED   0x00000004   Data   RW         3934    .data.ui_Infantry_group2_jam_point  ui_infantry_group2_0.o
    0x24000dbc   COMPRESSED   0x00000004   Data   RW         3914    .data.ui_g_Ungroup_NewText  ui_infantry_group1_5.o
    0x24000dc0   COMPRESSED   0x00000004   Data   RW         3968    .data.ui_self_id    ui_interface.o
    0x24000dc4   COMPRESSED   0x00000001   Data   RW         1492    .data.uwTickFreq    stm32h7xx_hal.o
    0x24000dc5   COMPRESSED   0x00000003   PAD
    0x24000dc8   COMPRESSED   0x00000004   Data   RW         1491    .data.uwTickPrio    stm32h7xx_hal.o
    0x24000dcc   COMPRESSED   0x00000004   Data   RW         2914    .data.uxCriticalNesting  port.o
    0x24000dd0   COMPRESSED   0x00000004   Data   RW         4014    .data.w_c           chassis.o
    0x24000dd4   COMPRESSED   0x00000004   PAD
    0x24000dd8        -       0x00000004   Zero   RW         3289    .bss.BMI088_Accel_INT_Callback.bmi088  bmi088.o
    0x24000ddc        -       0x00000008   Zero   RW         3283    .bss.BMI088_Accel_Read.rx  bmi088.o
    0x24000de4        -       0x00000004   Zero   RW         3286    .bss.BMI088_Accel_SPI_Finish_Callback.bmi088  bmi088.o
    0x24000de8        -       0x00000002   Zero   RW         3287    .bss.BMI088_Accel_SPI_Finish_Callback.callback_time  bmi088.o
    0x24000dea        -       0x00000002   Zero   RW         3278    .bss.BMI088_Calibrate_IMU.cali_time_count  bmi088.o
    0x24000dec        -       0x00000004   Zero   RW         3275    .bss.BMI088_Calibrate_IMU.start_time  bmi088.o
    0x24000df0        -       0x00000004   Zero   RW         3290    .bss.BMI088_Gyro_INT_Callback.bmi088  bmi088.o
    0x24000df4        -       0x00000008   Zero   RW         3285    .bss.BMI088_Gyro_Read.rx  bmi088.o
    0x24000dfc        -       0x00000004   Zero   RW         3288    .bss.BMI088_Gyro_SPI_Finish_Callback.bmi088  bmi088.o
    0x24000e00        -       0x00000006   Zero   RW         3272    .bss.BMI088_Read_All.buf  bmi088.o
    0x24000e06        -       0x00000001   Zero   RW         3281    .bss.BMI088_Register.error_count  bmi088.o
    0x24000e07   COMPRESSED   0x00000001   PAD
    0x24000e08        -       0x00000004   Zero   RW         4179    .bss.Buzzer_Handle  daemon_task.o
    0x24000e0c        -       0x00000040   Zero   RW         3010    .bss.CANFIFOxCallback.can_rx_buff  bsp_can.o
    0x24000e4c        -       0x00000028   Zero   RW         3009    .bss.CANFIFOxCallback.rx_config_header  bsp_can.o
    0x24000e74        -       0x00000001   Zero   RW         3006    .bss.CAN_Add_Filter.can1_filter_idx  bsp_can.o
    0x24000e75   COMPRESSED   0x00000003   PAD
    0x24000e78        -       0x00000004   Zero   RW         3003    .bss.CAN_Transmit.busy_count  bsp_can.o
    0x24000e7c        -       0x00000004   Zero   RW         2940    .bss.CPU_frequency  bsp_dwt.o
    0x24000e80        -       0x00000004   Zero   RW         2941    .bss.CPU_frequency_ms  bsp_dwt.o
    0x24000e84        -       0x00000004   Zero   RW         2942    .bss.CPU_frequency_us  bsp_dwt.o
    0x24000e88        -       0x00000008   Zero   RW         2945    .bss.CYCCNT64       bsp_dwt.o
    0x24000e90        -       0x00000004   Zero   RW         2947    .bss.CYCCNT_last    bsp_dwt.o
    0x24000e94        -       0x00000004   Zero   RW         2943    .bss.CYCCNT_round_count  bsp_dwt.o
    0x24000e98        -       0x00000001   Zero   RW         4304    .bss.Close_Spin_Flag  control_task.o
    0x24000e99   COMPRESSED   0x00000003   PAD
    0x24000e9c        -       0x00000004   Zero   RW         4081    .bss.DM_4310_pitch_head  gimbal.o
    0x24000ea0        -       0x00000004   Zero   RW         4082    .bss.DM_4310_pitch_neck  gimbal.o
    0x24000ea4        -       0x00000004   Zero   RW         4083    .bss.DM_6006_yaw    gimbal.o
    0x24000ea8        -       0x00000001   Zero   RW         2946    .bss.DWT_CNT_Update.bit_locker  bsp_dwt.o
    0x24000ea9   COMPRESSED   0x00000007   PAD
    0x24000eb0        -       0x00000008   Zero   RW         2948    .bss.DWT_System_Time_Update.CNT_TEMP1  bsp_dwt.o
    0x24000eb8        -       0x00000008   Zero   RW         2949    .bss.DWT_System_Time_Update.CNT_TEMP2  bsp_dwt.o
    0x24000ec0        -       0x00000008   Zero   RW         2950    .bss.DWT_System_Time_Update.CNT_TEMP3  bsp_dwt.o
    0x24000ec8        -       0x00000004   Zero   RW         4213    .bss.Gyro_Pitch     ins.o
    0x24000ecc        -       0x00000004   Zero   RW         4214    .bss.Gyro_Yaw       ins.o
    0x24000ed0        -       0x00000004   Zero   RW           71    .bss.HAL_RCC_FDCAN_CLK_ENABLED  fdcan.o
    0x24000ed4        -       0x00000004   Zero   RW         3702    .bss.IMU_QuaternionEKF_F_Linearization_P_Fading.q0  quaternionekf.o
    0x24000ed8        -       0x00000004   Zero   RW         3703    .bss.IMU_QuaternionEKF_F_Linearization_P_Fading.q1  quaternionekf.o
    0x24000edc        -       0x00000004   Zero   RW         3704    .bss.IMU_QuaternionEKF_F_Linearization_P_Fading.q2  quaternionekf.o
    0x24000ee0        -       0x00000004   Zero   RW         3705    .bss.IMU_QuaternionEKF_F_Linearization_P_Fading.q3  quaternionekf.o
    0x24000ee4        -       0x00000004   Zero   RW         3706    .bss.IMU_QuaternionEKF_F_Linearization_P_Fading.qInvNorm  quaternionekf.o
    0x24000ee8        -       0x00000048   Zero   RW         3701    .bss.IMU_QuaternionEKF_H  quaternionekf.o
    0x24000f30        -       0x00000048   Zero   RW         3700    .bss.IMU_QuaternionEKF_K  quaternionekf.o
    0x24000f78        -       0x00000004   Zero   RW         3707    .bss.IMU_QuaternionEKF_SetH.doubleq0  quaternionekf.o
    0x24000f7c        -       0x00000004   Zero   RW         3708    .bss.IMU_QuaternionEKF_SetH.doubleq1  quaternionekf.o
    0x24000f80        -       0x00000004   Zero   RW         3709    .bss.IMU_QuaternionEKF_SetH.doubleq2  quaternionekf.o
    0x24000f84        -       0x00000004   Zero   RW         3710    .bss.IMU_QuaternionEKF_SetH.doubleq3  quaternionekf.o
    0x24000f88        -       0x00000004   Zero   RW         3699    .bss.IMU_QuaternionEKF_Update.accelInvNorm  quaternionekf.o
    0x24000f8c        -       0x00000004   Zero   RW         3696    .bss.IMU_QuaternionEKF_Update.halfgxdt  quaternionekf.o
    0x24000f90        -       0x00000004   Zero   RW         3697    .bss.IMU_QuaternionEKF_Update.halfgydt  quaternionekf.o
    0x24000f94        -       0x00000004   Zero   RW         3698    .bss.IMU_QuaternionEKF_Update.halfgzdt  quaternionekf.o
    0x24000f98        -       0x00000004   Zero   RW         3711    .bss.IMU_QuaternionEKF_xhatUpdate.q0  quaternionekf.o
    0x24000f9c        -       0x00000004   Zero   RW         3712    .bss.IMU_QuaternionEKF_xhatUpdate.q1  quaternionekf.o
    0x24000fa0        -       0x00000004   Zero   RW         3713    .bss.IMU_QuaternionEKF_xhatUpdate.q2  quaternionekf.o
    0x24000fa4        -       0x00000004   Zero   RW         3714    .bss.IMU_QuaternionEKF_xhatUpdate.q3  quaternionekf.o
    0x24000fa8        -       0x00000091   Zero   RW         4205    .bss.INS            ins.o
    0x24001039   COMPRESSED   0x00000003   PAD
    0x2400103c        -       0x00000004   Zero   RW         4233    .bss.INS_Task.INS_dwt_count  ins_task.o
    0x24001040        -       0x00000004   Zero   RW         4230    .bss.INS_publisher  ins_task.o
    0x24001044        -       0x00000004   Zero   RW         4231    .bss.INS_subscriber  ins_task.o
    0x24001048        -       0x00000004   Zero   RW         4232    .bss.INS_task_diff  ins_task.o
    0x2400104c        -       0x00000004   Zero   RW         4229    .bss.INS_task_handel  ins_task.o
    0x24001050        -       0x00000010   Zero   RW         4379    .bss.I_temp         powerctrl.o
    0x24001060        -       0x00000010   Zero   RW         4388    .bss.I_test         powerctrl.o
    0x24001070        -       0x00000004   Zero   RW         2842    .bss.KernelState    cmsis_os2.o
    0x24001074        -       0x00000010   Zero   RW         4374    .bss.P_cal          powerctrl.o
    0x24001084        -       0x00000010   Zero   RW         4377    .bss.P_cmd          powerctrl.o
    0x24001094        -       0x00000004   Zero   RW         4389    .bss.P_test         powerctrl.o
    0x24001098        -       0x00000004   Zero   RW         4375    .bss.P_total        powerctrl.o
    0x2400109c        -       0x00000004   Zero   RW         4376    .bss.P_total_temp   powerctrl.o
    0x240010a0        -       0x000001e8   Zero   RW         3695    .bss.QEKF_INS       quaternionekf.o
    0x24001288        -       0x00000004   Zero   RW         4412    .bss.SuperCap_Data  supercap.o
    0x2400128c        -       0x00000001   Zero   RW         4646    .bss.USBD_SetConfig.cfgidx  usbd_ctlreq.o
    0x2400128d   COMPRESSED   0x00000003   PAD
    0x24001290        -       0x00000200   Zero   RW         4457    .bss.USBD_StrDesc   usbd_desc.o
    0x24001490        -       0x00000220   Zero   RW         4553    .bss.USBD_static_malloc.mem  usbd_conf.o
    0x240016b0        -       0x00000800   Zero   RW         4481    .bss.UserRxBufferHS  usbd_cdc_if.o
    0x24001eb0        -       0x00000800   Zero   RW         4482    .bss.UserTxBufferHS  usbd_cdc_if.o
    0x240026b0        -       0x00000018   Zero   RW         3151    .bss.WS2812_Control.txbuf  ws2812.o
    0x240026c8        -       0x00000004   Zero   RW         4090    .bss.Yaw_6006_Initial_Value  gimbal.o
    0x240026cc        -       0x00000004   Zero   RW         4091    .bss.Yaw_IMU_Reference  gimbal.o
    0x240026d0        -       0x00000054   Zero   RW         3273    .bss.acc_kf         bmi088.o
    0x24002724        -       0x0000000c   Zero   RW         4211    .bss.accel_ins      ins.o
    0x24002730        -       0x00000001   Zero   RW         3806    .bss.auto_flag      ui.o
    0x24002731   COMPRESSED   0x00000003   PAD
    0x24002734        -       0x00000004   Zero   RW           42    .bss.beat           freertos.o
    0x24002738        -       0x00000004   Zero   RW         3270    .bss.bmi088_h7      bmi088.o
    0x2400273c        -       0x00000004   Zero   RW         3224    .bss.buzzer         buzzer.o
    0x24002740        -       0x00000001   Zero   RW         3225    .bss.buzzer_one_note_flag  buzzer.o
    0x24002741   COMPRESSED   0x00000003   PAD
    0x24002744        -       0x00000004   Zero   RW         3226    .bss.buzzer_one_note_time  buzzer.o
    0x24002748        -       0x00000060   Zero   RW         3002    .bss.can_instances  bsp_can.o
    0x240027a8        -       0x00000400   Zero   RW         4479    .bss.cdc_rx_cache   usbd_cdc_if.o
    0x24002ba8        -       0x00000004   Zero   RW         4477    .bss.cdc_rx_len     usbd_cdc_if.o
    0x24002bac        -       0x00000018   Zero   RW         4023    .bss.chassis_cmd    chassis.o
    0x24002bc4        -       0x00000010   Zero   RW         4024    .bss.chassis_m3508  chassis.o
    0x24002bd4        -       0x00000004   Zero   RW         4137    .bss.chassis_shoot_motor  shoot.o
    0x24002bd8        -       0x00000004   Zero   RW         4040    .bss.chassis_task_diff  chassis_task.o
    0x24002bdc        -       0x00000004   Zero   RW         4480    .bss.cnt_CDC        usbd_cdc_if.o
    0x24002be0        -       0x00000004   Zero   RW         4106    .bss.cnt_test       gimbal_task.o
    0x24002be4        -       0x00000004   Zero   RW         4305    .bss.control_task_diff  control_task.o
    0x24002be8        -       0x00000004   Zero   RW         4301    .bss.control_task_handle  control_task.o
    0x24002bec        -       0x00000004   Zero   RW         4387    .bss.current        powerctrl.o
    0x24002bf0        -       0x00000004   Zero   RW           41    .bss.defaultTaskHandle  freertos.o
    0x24002bf4        -       0x00000004   Zero   RW         3807    .bss.delta_gim      ui.o
    0x24002bf8        -       0x00000030   Zero   RW         3350    .bss.dji_motor_instances  dji_motor.o
    0x24002c28        -       0x00000010   Zero   RW         3405    .bss.dm_motor_instances  dm_motor.o
    0x24002c38        -       0x00000010   Zero   RW         4380    .bss.error          powerctrl.o
    0x24002c48        -       0x00000004   Zero   RW         4381    .bss.error_sum      powerctrl.o
    0x24002c4c        -       0x00000400   Zero   RW         4325    .bss.frame_buf      vpc.o
    0x2400304c        -       0x00000001   Zero   RW         3805    .bss.fric_flag      ui.o
    0x2400304d   COMPRESSED   0x00000003   PAD
    0x24003050        -       0x0000000c   Zero   RW         4138    .bss.friction_motor  shoot.o
    0x2400305c        -       0x00000001   Zero   RW         4130    .bss.friction_state  shoot.o
    0x2400305d   COMPRESSED   0x00000003   PAD
    0x24003060        -       0x00000004   Zero   RW         3279    .bss.g_norm_diff    bmi088.o
    0x24003064        -       0x00000023   Zero   RW         4084    .bss.gimbal_cmd     gimbal.o
    0x24003087   COMPRESSED   0x00000001   PAD
    0x24003088        -       0x00000004   Zero   RW         4107    .bss.gimbal_task_diff  gimbal_task.o
    0x2400308c        -       0x00000004   Zero   RW         4105    .bss.gimbal_task_handel  gimbal_task.o
    0x24003090        -       0x00000020   Zero   RW         3078    .bss.gpio_instances  bsp_gpio.o
    0x240030b0        -       0x0000000c   Zero   RW         3280    .bss.gyro_diff      bmi088.o
    0x240030bc        -       0x0000000c   Zero   RW         4210    .bss.gyro_ins       ins.o
    0x240030c8        -       0x00000054   Zero   RW         3274    .bss.gyro_kf        bmi088.o
    0x2400311c        -       0x000002dc   Zero   RW         4424    .bss.hUsbDeviceHS   usb_device.o
    0x240033f8        -       0x00000078   Zero   RW          157    .bss.hdma_uart5_rx  usart.o
    0x24003470        -       0x00000078   Zero   RW          158    .bss.hdma_uart7_rx  usart.o
    0x240034e8        -       0x00000078   Zero   RW          159    .bss.hdma_uart7_tx  usart.o
    0x24003560        -       0x00000078   Zero   RW          161    .bss.hdma_usart10_rx  usart.o
    0x240035d8        -       0x00000078   Zero   RW          160    .bss.hdma_usart10_tx  usart.o
    0x24003650        -       0x000000a0   Zero   RW           68    .bss.hfdcan1        fdcan.o
    0x240036f0        -       0x000000a0   Zero   RW           69    .bss.hfdcan2        fdcan.o
    0x24003790        -       0x000000a0   Zero   RW           70    .bss.hfdcan3        fdcan.o
    0x24003830        -       0x00000054   Zero   RW           85    .bss.hi2c2          i2c.o
    0x24003884        -       0x000004e4   Zero   RW         4552    .bss.hpcd_USB_OTG_HS  usbd_conf.o
    0x24003d68        -       0x00000088   Zero   RW          101    .bss.hspi2          spi.o
    0x24003df0        -       0x00000088   Zero   RW          102    .bss.hspi6          spi.o
    0x24003e78        -       0x0000004c   Zero   RW          124    .bss.htim1          tim.o
    0x24003ec4        -       0x0000004c   Zero   RW          127    .bss.htim12         tim.o
    0x24003f10        -       0x0000004c   Zero   RW          125    .bss.htim2          tim.o
    0x24003f5c        -       0x0000004c   Zero   RW          126    .bss.htim3          tim.o
    0x24003fa8        -       0x0000004c   Zero   RW          242    .bss.htim7          stm32h7xx_hal_timebase_tim.o
    0x24003ff4        -       0x00000094   Zero   RW          153    .bss.huart1         usart.o
    0x24004088        -       0x00000094   Zero   RW          156    .bss.huart10        usart.o
    0x2400411c        -       0x00000094   Zero   RW          154    .bss.huart2         usart.o
    0x240041b0        -       0x00000094   Zero   RW          155    .bss.huart3         usart.o
    0x24004244        -       0x00000094   Zero   RW          151    .bss.huart5         usart.o
    0x240042d8        -       0x00000094   Zero   RW          152    .bss.huart7         usart.o
    0x2400436c        -       0x00000004   Zero   RW         3352    .bss.i              dji_motor.o
    0x24004370        -       0x00000001   Zero   RW         2974    .bss.idx            bsp_pwm.o
    0x24004371        -       0x00000001   Zero   RW         3001    .bss.idx            bsp_can.o
    0x24004372        -       0x00000001   Zero   RW         3032    .bss.idx            bsp_usart.o
    0x24004373        -       0x00000001   Zero   RW         3056    .bss.idx            bsp_spi.o
    0x24004374        -       0x00000001   Zero   RW         3077    .bss.idx            bsp_gpio.o
    0x24004375        -       0x00000001   Zero   RW         3116    .bss.idx            defense_center.o
    0x24004376        -       0x00000001   Zero   RW         3351    .bss.idx            dji_motor.o
    0x24004377        -       0x00000001   Zero   RW         3404    .bss.idx            dm_motor.o
    0x24004378        -       0x00000001   Zero   RW         3430    .bss.idx            shoot_motor.o
    0x24004379   COMPRESSED   0x00000003   PAD
    0x2400437c        -       0x0000001c   Zero   RW         4206    .bss.imu_data       ins.o
    0x24004398        -       0x00000004   Zero   RW         4209    .bss.ins_time       ins.o
    0x2400439c        -       0x00000004   Zero   RW         4383    .bss.k_coe          powerctrl.o
    0x240043a0        -       0x00000020   Zero   RW         4355    .bss.nv_aim_packet_from_nuc  serial.o
    0x240043c0        -       0x00000026   Zero   RW         4356    .bss.nv_aim_packet_to_nuc  serial.o
    0x240043e6   COMPRESSED   0x00000002   PAD
    0x240043e8        -       0x00000004   Zero   RW         4020    .bss.omega          chassis.o
    0x240043ec        -       0x00000004   Zero   RW         4022    .bss.omega_follow_cal  chassis.o
    0x240043f0        -       0x00000004   Zero   RW         4070    .bss.pitch_head_angle_measure  gimbal.o
    0x240043f4        -       0x00000004   Zero   RW         4069    .bss.pitch_head_angle_target  gimbal.o
    0x240043f8        -       0x00000004   Zero   RW         4068    .bss.pitch_head_speed_measure  gimbal.o
    0x240043fc        -       0x00000004   Zero   RW         4071    .bss.pitch_head_speed_out  gimbal.o
    0x24004400        -       0x00000004   Zero   RW         4067    .bss.pitch_head_speed_target  gimbal.o
    0x24004404        -       0x00000004   Zero   RW         4273    .bss.procotol_publisher  procotol_task.o
    0x24004408        -       0x00000004   Zero   RW         4274    .bss.procotol_subscriber  procotol_task.o
    0x2400440c        -       0x00000004   Zero   RW         4275    .bss.procotol_task_diff  procotol_task.o
    0x24004410        -       0x00000004   Zero   RW         4272    .bss.procotol_task_handel  procotol_task.o
    0x24004414        -       0x000000a0   Zero   RW         2668    .bss.prvCheckForValidListAndQueue.ucStaticTimerQueueStorage  timers.o
    0x240044b4        -       0x00000050   Zero   RW         2667    .bss.prvCheckForValidListAndQueue.xStaticTimerQueue  timers.o
    0x24004504        -       0x00000004   Zero   RW         2664    .bss.prvSampleTimeNow.xLastTime  timers.o
    0x24004508        -       0x00000040   Zero   RW         2975    .bss.pwm_instances  bsp_pwm.o
    0x24004548        -       0x00000004   Zero   RW         2576    .bss.pxCurrentTCB   tasks.o
    0x2400454c        -       0x00000004   Zero   RW         2662    .bss.pxCurrentTimerList  timers.o
    0x24004550        -       0x00000004   Zero   RW         2584    .bss.pxDelayedTaskList  tasks.o
    0x24004554        -       0x00000004   Zero   RW         2871    .bss.pxEnd          heap_4.o
    0x24004558        -       0x00000004   Zero   RW         2585    .bss.pxOverflowDelayedTaskList  tasks.o
    0x2400455c        -       0x00000004   Zero   RW         2663    .bss.pxOverflowTimerList  timers.o
    0x24004560        -       0x00000460   Zero   RW         2587    .bss.pxReadyTasksLists  tasks.o
    0x240049c0        -       0x00000004   Zero   RW         3990    .bss.rc_ctl         robot_frame_init.o
    0x240049c4        -       0x00000090   Zero   RW         3314    .bss.rc_ctrl        remote_control.o
    0x24004a54        -       0x00000001   Zero   RW         3313    .bss.rc_init_flag   remote_control.o
    0x24004a55   COMPRESSED   0x00000003   PAD
    0x24004a58        -       0x00000004   Zero   RW         3312    .bss.rc_supervisor_instance  remote_control.o
    0x24004a5c        -       0x00000004   Zero   RW         3310    .bss.rc_usart_instance  remote_control.o
    0x24004a60        -       0x00000004   Zero   RW         3505    .bss.referee_supervisor_instance  referee.o
    0x24004a64        -       0x00000004   Zero   RW         3501    .bss.referee_usart_instance  referee.o
    0x24004a68        -       0x00000004   Zero   RW         3991    .bss.refree_data    robot_frame_init.o
    0x24004a6c        -       0x00000126   Zero   RW         3502    .bss.refree_info    referee.o
    0x24004b92        -       0x00000001   Zero   RW         3506    .bss.refree_init_flag  referee.o
    0x24004b93   COMPRESSED   0x00000001   PAD
    0x24004b94        -       0x00000004   Zero   RW         4039    .bss.robot_cmd_task_handel  chassis_task.o
    0x24004b98        -       0x0000000f   Zero   RW         3354    .bss.sender_enable_flag  dji_motor.o
    0x24004ba7        -       0x00000001   Zero   RW         3967    .bss.seq            ui_interface.o
    0x24004ba8        -       0x00000001   Zero   RW         4128    .bss.shoot_mode     shoot.o
    0x24004ba9   COMPRESSED   0x00000003   PAD
    0x24004bac        -       0x0000000c   Zero   RW         3431    .bss.shoot_motor_instances  shoot_motor.o
    0x24004bb8        -       0x00000001   Zero   RW         4129    .bss.shoot_permission  shoot.o
    0x24004bb9   COMPRESSED   0x00000003   PAD
    0x24004bbc        -       0x00000004   Zero   RW         4154    .bss.shoot_publisher  shoot_task.o
    0x24004bc0        -       0x00000002   Zero   RW         3429    .bss.shoot_sender_enable_flag  shoot_motor.o
    0x24004bc2   COMPRESSED   0x00000002   PAD
    0x24004bc4        -       0x00000004   Zero   RW         4155    .bss.shoot_subscriber  shoot_task.o
    0x24004bc8        -       0x00000004   Zero   RW         4156    .bss.shoot_task_diff  shoot_task.o
    0x24004bcc        -       0x00000004   Zero   RW         4153    .bss.shoot_task_handel  shoot_task.o
    0x24004bd0        -       0x00000002   Zero   RW         3741    .bss.sizeof_double  kalman_filter.o
    0x24004bd2        -       0x00000002   Zero   RW         3740    .bss.sizeof_float   kalman_filter.o
    0x24004bd4        -       0x00000004   Zero   RW         4386    .bss.speed_rad      powerctrl.o
    0x24004bd8        -       0x00000008   Zero   RW         3057    .bss.spi_instances  bsp_spi.o
    0x24004be0        -       0x00000004   Zero   RW         4212    .bss.stop_time      ins.o
    0x24004be4        -       0x00000001   Zero   RW         3798    .bss.supercap_energy  ui.o
    0x24004be5   COMPRESSED   0x00000003   PAD
    0x24004be8        -       0x00000100   Zero   RW         3115    .bss.supervisor_instances  defense_center.o
    0x24004ce8        -       0x00000008   Zero   RW         2944    .bss.system_time    bsp_dwt.o
    0x24004cf0        -       0x00000002   Zero   RW         4127    .bss.target_shoot_frequence  shoot.o
    0x24004cf2   COMPRESSED   0x00000002   PAD
    0x24004cf4        -       0x00000010   Zero   RW         4013    .bss.target_speed   chassis.o
    0x24004d04        -       0x00000064   Zero   RW         3175    .bss.tempData       vofa.o
    0x24004d68        -       0x00000004   Zero   RW         4021    .bss.temp_omega_follow  chassis.o
    0x24004d6c        -       0x00000004   Zero   RW         4088    .bss.temp_v_pitch_head  gimbal.o
    0x24004d70        -       0x00000004   Zero   RW         4086    .bss.temp_v_pitch_neck  gimbal.o
    0x24004d74        -       0x00000004   Zero   RW         4087    .bss.temp_v_yaw     gimbal.o
    0x24004d78        -       0x00000004   Zero   RW         4302    .bss.temp_x         control_task.o
    0x24004d7c        -       0x00000004   Zero   RW         4303    .bss.temp_y         control_task.o
    0x24004d80        -       0x00000001   Zero   RW         3452    .bss.uart2_status   rs485.o
    0x24004d81        -       0x00003c00   Zero   RW         2878    .bss.ucHeap         heap_4.o
    0x24008981        -       0x00000001   Zero   RW         2912    .bss.ucMaxSysCallPriority  port.o
    0x24008982        -       0x0000003c   Zero   RW         3821    .bss.ui_Infantry_group1_0  ui_infantry_group1_0.o
    0x240089be        -       0x0000003c   Zero   RW         3837    .bss.ui_Infantry_group1_1  ui_infantry_group1_1.o
    0x240089fa        -       0x0000003c   Zero   RW         3853    .bss.ui_Infantry_group1_2  ui_infantry_group1_2.o
    0x24008a36        -       0x00000078   Zero   RW         3869    .bss.ui_Infantry_group1_3  ui_infantry_group1_3.o
    0x24008aae        -       0x0000005a   Zero   RW         3890    .bss.ui_Infantry_group1_4  ui_infantry_group1_4.o
    0x24008b08        -       0x00000069   Zero   RW         3929    .bss.ui_Infantry_group2_0  ui_infantry_group2_0.o
    0x24008b71   COMPRESSED   0x00000003   PAD
    0x24008b74        -       0x00000004   Zero   RW         3797    .bss.ui_diff        ui.o
    0x24008b78        -       0x0000003c   Zero   RW         3913    .bss.ui_g_Ungroup_0  ui_infantry_group1_5.o
    0x24008bb4        -       0x00000004   Zero   RW         3804    .bss.ui_high_water  ui.o
    0x24008bb8        -       0x00000004   Zero   RW         3802    .bss.ui_publisher   ui.o
    0x24008bbc        -       0x00000004   Zero   RW         3803    .bss.ui_subscriber  ui.o
    0x24008bc0        -       0x00000004   Zero   RW         3801    .bss.ui_task_handel  ui.o
    0x24008bc4        -       0x00000004   Zero   RW         2913    .bss.ulMaxPRIGROUPValue  port.o
    0x24008bc8        -       0x0000001c   Zero   RW         3033    .bss.usart_instances  bsp_usart.o
    0x24008be4        -       0x00000004   Zero   RW         1493    .bss.uwTick         stm32h7xx_hal.o
    0x24008be8        -       0x00000004   Zero   RW         2580    .bss.uxCurrentNumberOfTasks  tasks.o
    0x24008bec        -       0x00000004   Zero   RW         2579    .bss.uxDeletedTasksWaitingCleanUp  tasks.o
    0x24008bf0        -       0x00000004   Zero   RW         2582    .bss.uxSchedulerSuspended  tasks.o
    0x24008bf4        -       0x00000004   Zero   RW         2577    .bss.uxTaskNumber   tasks.o
    0x24008bf8        -       0x00000004   Zero   RW         2588    .bss.uxTopReadyPriority  tasks.o
    0x24008bfc        -       0x00000200   Zero   RW         2845    .bss.vApplicationGetIdleTaskMemory.Idle_Stack  cmsis_os2.o
    0x24008dfc        -       0x0000005c   Zero   RW         2844    .bss.vApplicationGetIdleTaskMemory.Idle_TCB  cmsis_os2.o
    0x24008e58        -       0x00000400   Zero   RW         2847    .bss.vApplicationGetTimerTaskMemory.Timer_Stack  cmsis_os2.o
    0x24009258        -       0x0000005c   Zero   RW         2846    .bss.vApplicationGetTimerTaskMemory.Timer_TCB  cmsis_os2.o
    0x240092b4        -       0x00000050   Zero   RW         3172    .bss.vofa_data_view  vofa.o
    0x24009304        -       0x00000004   Zero   RW         3173    .bss.vofa_usart_instance  vofa.o
    0x24009308        -       0x0000001d   Zero   RW         4357    .bss.vs_aim_packet_from_nuc  serial.o
    0x24009325        -       0x0000002b   Zero   RW         4358    .bss.vs_aim_packet_to_nuc  serial.o
    0x24009350        -       0x00000010   Zero   RW         4382    .bss.weight         powerctrl.o
    0x24009360        -       0x00000014   Zero   RW         3152    .bss.ws2812_config  ws2812.o
    0x24009374        -       0x00000004   Zero   RW         3153    .bss.ws2812_instance  ws2812.o
    0x24009378        -       0x00000014   Zero   RW         2665    .bss.xActiveTimerList1  timers.o
    0x2400938c        -       0x00000014   Zero   RW         2666    .bss.xActiveTimerList2  timers.o
    0x240093a0        -       0x00000004   Zero   RW         2872    .bss.xBlockAllocatedBit  heap_4.o
    0x240093a4        -       0x00000014   Zero   RW         2596    .bss.xDelayedTaskList1  tasks.o
    0x240093b8        -       0x00000014   Zero   RW         2597    .bss.xDelayedTaskList2  tasks.o
    0x240093cc        -       0x00000004   Zero   RW         2873    .bss.xFreeBytesRemaining  heap_4.o
    0x240093d0        -       0x00000004   Zero   RW         2591    .bss.xIdleTaskHandle  tasks.o
    0x240093d4        -       0x00000004   Zero   RW         2875    .bss.xMinimumEverFreeBytesRemaining  heap_4.o
    0x240093d8        -       0x00000004   Zero   RW         2592    .bss.xNextTaskUnblockTime  tasks.o
    0x240093dc        -       0x00000004   Zero   RW         2595    .bss.xNumOfOverflows  tasks.o
    0x240093e0        -       0x00000004   Zero   RW         2876    .bss.xNumberOfSuccessfulAllocations  heap_4.o
    0x240093e4        -       0x00000004   Zero   RW         2877    .bss.xNumberOfSuccessfulFrees  heap_4.o
    0x240093e8        -       0x00000004   Zero   RW         2594    .bss.xPendedTicks   tasks.o
    0x240093ec        -       0x00000014   Zero   RW         2589    .bss.xPendingReadyList  tasks.o
    0x24009400        -       0x00000040   Zero   RW         2387    .bss.xQueueRegistry  queue.o
    0x24009440        -       0x00000004   Zero   RW         2581    .bss.xSchedulerRunning  tasks.o
    0x24009444        -       0x00000008   Zero   RW         2874    .bss.xStart         heap_4.o
    0x2400944c        -       0x00000014   Zero   RW         2586    .bss.xSuspendedTaskList  tasks.o
    0x24009460        -       0x00000014   Zero   RW         2578    .bss.xTasksWaitingTermination  tasks.o
    0x24009474        -       0x00000004   Zero   RW         2583    .bss.xTickCount     tasks.o
    0x24009478        -       0x00000004   Zero   RW         2659    .bss.xTimerQueue    timers.o
    0x2400947c        -       0x00000004   Zero   RW         2661    .bss.xTimerTaskHandle  timers.o
    0x24009480        -       0x00000004   Zero   RW         2593    .bss.xYieldPending  tasks.o
    0x24009484        -       0x00000004   Zero   RW         4015    .bss.x_c            chassis.o
    0x24009488        -       0x00000004   Zero   RW         3774    .bss.y_1            ramp.o
    0x2400948c        -       0x00000004   Zero   RW         3775    .bss.y_2            ramp.o
    0x24009490        -       0x00000004   Zero   RW         3776    .bss.y_3            ramp.o
    0x24009494        -       0x00000004   Zero   RW         3777    .bss.y_4            ramp.o
    0x24009498        -       0x00000004   Zero   RW         4065    .bss.yaw_angle_measure  gimbal.o
    0x2400949c        -       0x00000004   Zero   RW         4064    .bss.yaw_angle_target  gimbal.o
    0x240094a0        -       0x00000004   Zero   RW         4063    .bss.yaw_speed_measure  gimbal.o
    0x240094a4        -       0x00000004   Zero   RW         4066    .bss.yaw_speed_out  gimbal.o
    0x240094a8        -       0x00000004   Zero   RW         4062    .bss.yaw_speed_target  gimbal.o
    0x240094ac        -       0x00000004   Zero   RW         4085    .bss.yaw_to_mid     gimbal.o
    0x240094b0        -       0x00000004   Zero   RW         4089    .bss.yaw_to_mid_error  gimbal.o
    0x240094b4   COMPRESSED   0x00000004   PAD
    0x240094b8        -       0x00001600   Zero   RW            2    HEAP                startup_stm32h723xx.o
    0x2400aab8        -       0x00003200   Zero   RW            1    STACK               startup_stm32h723xx.o

